;--------------------------------------------------------
; File Created by SDCC : free open source ANSI-C Compiler
; Version 3.6.0 #9615 (MINGW64)
;--------------------------------------------------------
	.module TestPT3
	.optsdcc -mz80
	
;--------------------------------------------------------
; Public variables in this module
;--------------------------------------------------------
	.globl _main
	.globl _my_isr0
	.globl _PT3Play
	.globl _PT3Init
	.globl _install_isr
	.globl _PRINT
	.globl _LOCATE
	.globl _COLOR
	.globl _WIDTH
	.globl _SCREEN1
	.globl _presskey
	.globl _text02
	.globl _text01
	.globl _MAKISONG
	.globl _PT3_author
	.globl _PT3_name
	.globl _PEEK
	.globl _POKE
	.globl _VPEEK
	.globl _INKEY
	.globl _WAIT
;--------------------------------------------------------
; special function registers
;--------------------------------------------------------
;--------------------------------------------------------
; ram data
;--------------------------------------------------------
	.area _DATA
;--------------------------------------------------------
; ram data
;--------------------------------------------------------
	.area _INITIALIZED
;--------------------------------------------------------
; absolute external ram data
;--------------------------------------------------------
	.area _DABS (ABS)
;--------------------------------------------------------
; global & static initialisations
;--------------------------------------------------------
	.area _HOME
	.area _GSINIT
	.area _GSFINAL
	.area _GSINIT
;--------------------------------------------------------
; Home
;--------------------------------------------------------
	.area _HOME
	.area _HOME
;--------------------------------------------------------
; code
;--------------------------------------------------------
	.area _CODE
;src\TestPT3.c:51: void my_isr0(void) __interrupt 
;	---------------------------------
; Function my_isr0
; ---------------------------------
_my_isr0::
	ei
	push	af
	push	bc
	push	de
	push	hl
	push	iy
;src\TestPT3.c:53: DI;
	di	
;src\TestPT3.c:54: READ_VDP_STATUS;
	in	a,(#0x99) 
;src\TestPT3.c:56: PT3Play();  
	call	_PT3Play
;src\TestPT3.c:58: EI;
	ei	
	pop	iy
	pop	hl
	pop	de
	pop	bc
	pop	af
	reti
_PT3_name:
	.ascii "A funny day with my MSX"
	.db 0x00
_PT3_author:
	.ascii "Makinavaja"
	.db 0x00
_MAKISONG:
	.db #0x56	; 86	'V'
	.db #0x6f	; 111	'o'
	.db #0x72	; 114	'r'
	.db #0x74	; 116	't'
	.db #0x65	; 101	'e'
	.db #0x78	; 120	'x'
	.db #0x20	; 32
	.db #0x54	; 84	'T'
	.db #0x72	; 114	'r'
	.db #0x61	; 97	'a'
	.db #0x63	; 99	'c'
	.db #0x6b	; 107	'k'
	.db #0x65	; 101	'e'
	.db #0x72	; 114	'r'
	.db #0x20	; 32
	.db #0x49	; 73	'I'
	.db #0x49	; 73	'I'
	.db #0x20	; 32
	.db #0x31	; 49	'1'
	.db #0x2e	; 46
	.db #0x30	; 48	'0'
	.db #0x20	; 32
	.db #0x6d	; 109	'm'
	.db #0x6f	; 111	'o'
	.db #0x64	; 100	'd'
	.db #0x75	; 117	'u'
	.db #0x6c	; 108	'l'
	.db #0x65	; 101	'e'
	.db #0x3a	; 58
	.db #0x20	; 32
	.db #0x41	; 65	'A'
	.db #0x20	; 32
	.db #0x66	; 102	'f'
	.db #0x75	; 117	'u'
	.db #0x6e	; 110	'n'
	.db #0x6e	; 110	'n'
	.db #0x79	; 121	'y'
	.db #0x20	; 32
	.db #0x64	; 100	'd'
	.db #0x61	; 97	'a'
	.db #0x79	; 121	'y'
	.db #0x20	; 32
	.db #0x77	; 119	'w'
	.db #0x69	; 105	'i'
	.db #0x74	; 116	't'
	.db #0x68	; 104	'h'
	.db #0x20	; 32
	.db #0x6d	; 109	'm'
	.db #0x79	; 121	'y'
	.db #0x20	; 32
	.db #0x4d	; 77	'M'
	.db #0x53	; 83	'S'
	.db #0x58	; 88	'X'
	.db #0x20	; 32
	.db #0x20	; 32
	.db #0x20	; 32
	.db #0x20	; 32
	.db #0x20	; 32
	.db #0x20	; 32
	.db #0x20	; 32
	.db #0x20	; 32
	.db #0x20	; 32
	.db #0x20	; 32
	.db #0x62	; 98	'b'
	.db #0x79	; 121	'y'
	.db #0x20	; 32
	.db #0x4d	; 77	'M'
	.db #0x61	; 97	'a'
	.db #0x6b	; 107	'k'
	.db #0x69	; 105	'i'
	.db #0x6e	; 110	'n'
	.db #0x61	; 97	'a'
	.db #0x76	; 118	'v'
	.db #0x61	; 97	'a'
	.db #0x6a	; 106	'j'
	.db #0x61	; 97	'a'
	.db #0x20	; 32
	.db #0x20	; 32
	.db #0x20	; 32
	.db #0x20	; 32
	.db #0x20	; 32
	.db #0x20	; 32
	.db #0x20	; 32
	.db #0x20	; 32
	.db #0x20	; 32
	.db #0x20	; 32
	.db #0x20	; 32
	.db #0x20	; 32
	.db #0x20	; 32
	.db #0x20	; 32
	.db #0x20	; 32
	.db #0x20	; 32
	.db #0x20	; 32
	.db #0x20	; 32
	.db #0x20	; 32
	.db #0x20	; 32
	.db #0x20	; 32
	.db #0x20	; 32
	.db #0x20	; 32
	.db #0x02	; 2
	.db #0x03	; 3
	.db #0x25	; 37
	.db #0x00	; 0
	.db #0xef	; 239
	.db #0x00	; 0
	.db #0x00	; 0
	.db #0x00	; 0
	.db #0xbd	; 189
	.db #0x0a	; 10
	.db #0xcb	; 203
	.db #0x0a	; 10
	.db #0xd1	; 209
	.db #0x0a	; 10
	.db #0xd7	; 215
	.db #0x0a	; 10
	.db #0x99	; 153
	.db #0x0b	; 11
	.db #0x00	; 0
	.db #0x00	; 0
	.db #0x00	; 0
	.db #0x00	; 0
	.db #0x00	; 0
	.db #0x00	; 0
	.db #0x00	; 0
	.db #0x00	; 0
	.db #0x00	; 0
	.db #0x00	; 0
	.db #0x00	; 0
	.db #0x00	; 0
	.db #0x00	; 0
	.db #0x00	; 0
	.db #0x00	; 0
	.db #0x00	; 0
	.db #0x00	; 0
	.db #0x00	; 0
	.db #0x00	; 0
	.db #0x00	; 0
	.db #0x00	; 0
	.db #0x00	; 0
	.db #0x00	; 0
	.db #0x00	; 0
	.db #0x00	; 0
	.db #0x00	; 0
	.db #0x00	; 0
	.db #0x00	; 0
	.db #0x00	; 0
	.db #0x00	; 0
	.db #0x00	; 0
	.db #0x00	; 0
	.db #0x00	; 0
	.db #0x00	; 0
	.db #0x00	; 0
	.db #0x00	; 0
	.db #0x00	; 0
	.db #0x00	; 0
	.db #0x00	; 0
	.db #0x00	; 0
	.db #0x00	; 0
	.db #0x00	; 0
	.db #0x00	; 0
	.db #0x00	; 0
	.db #0x00	; 0
	.db #0x00	; 0
	.db #0x00	; 0
	.db #0x00	; 0
	.db #0x00	; 0
	.db #0x00	; 0
	.db #0x00	; 0
	.db #0x00	; 0
	.db #0xa3	; 163
	.db #0x0b	; 11
	.db #0x00	; 0
	.db #0x00	; 0
	.db #0x00	; 0
	.db #0x00	; 0
	.db #0x00	; 0
	.db #0x00	; 0
	.db #0x00	; 0
	.db #0x00	; 0
	.db #0x00	; 0
	.db #0x00	; 0
	.db #0x00	; 0
	.db #0x00	; 0
	.db #0x00	; 0
	.db #0x00	; 0
	.db #0x00	; 0
	.db #0x00	; 0
	.db #0x00	; 0
	.db #0x00	; 0
	.db #0x00	; 0
	.db #0x00	; 0
	.db #0x00	; 0
	.db #0x00	; 0
	.db #0x00	; 0
	.db #0x00	; 0
	.db #0x00	; 0
	.db #0x00	; 0
	.db #0xa6	; 166
	.db #0x0b	; 11
	.db #0x00	; 0
	.db #0x00	; 0
	.db #0x03	; 3
	.db #0x06	; 6
	.db #0x03	; 3
	.db #0x06	; 6
	.db #0x09	; 9
	.db #0x0c	; 12
	.db #0x09	; 9
	.db #0x12	; 18
	.db #0x36	; 54	'6'
	.db #0x39	; 57	'9'
	.db #0x3c	; 60
	.db #0x3f	; 63
	.db #0x42	; 66	'B'
	.db #0x45	; 69	'E'
	.db #0x42	; 66	'B'
	.db #0x4b	; 75	'K'
	.db #0x0f	; 15
	.db #0x00	; 0
	.db #0x15	; 21
	.db #0x18	; 24
	.db #0x1b	; 27
	.db #0x1e	; 30
	.db #0x21	; 33
	.db #0x24	; 36
	.db #0x27	; 39
	.db #0x2a	; 42
	.db #0x2d	; 45
	.db #0x30	; 48	'0'
	.db #0x33	; 51	'3'
	.db #0x1b	; 27
	.db #0x1e	; 30
	.db #0x21	; 33
	.db #0x24	; 36
	.db #0x27	; 39
	.db #0x2a	; 42
	.db #0x2d	; 45
	.db #0x48	; 72	'H'
	.db #0xff	; 255
	.db #0x93	; 147
	.db #0x06	; 6
	.db #0x8f	; 143
	.db #0x06	; 6
	.db #0x8f	; 143
	.db #0x06	; 6
	.db #0x8b	; 139
	.db #0x01	; 1
	.db #0xb0	; 176
	.db #0x01	; 1
	.db #0x1b	; 27
	.db #0x02	; 2
	.db #0x76	; 118	'v'
	.db #0x02	; 2
	.db #0x9e	; 158
	.db #0x02	; 2
	.db #0x1b	; 27
	.db #0x02	; 2
	.db #0x09	; 9
	.db #0x03	; 3
	.db #0x2c	; 44
	.db #0x03	; 3
	.db #0x1b	; 27
	.db #0x02	; 2
	.db #0xa0	; 160
	.db #0x03	; 3
	.db #0xc3	; 195
	.db #0x03	; 3
	.db #0x1b	; 27
	.db #0x02	; 2
	.db #0x7b	; 123
	.db #0x06	; 6
	.db #0x8f	; 143
	.db #0x06	; 6
	.db #0x8f	; 143
	.db #0x06	; 6
	.db #0x31	; 49	'1'
	.db #0x04	; 4
	.db #0xc3	; 195
	.db #0x03	; 3
	.db #0x1b	; 27
	.db #0x02	; 2
	.db #0xaa	; 170
	.db #0x06	; 6
	.db #0x8f	; 143
	.db #0x06	; 6
	.db #0x8f	; 143
	.db #0x06	; 6
	.db #0xb7	; 183
	.db #0x06	; 6
	.db #0xcb	; 203
	.db #0x06	; 6
	.db #0xf2	; 242
	.db #0x06	; 6
	.db #0x1f	; 31
	.db #0x07	; 7
	.db #0x2f	; 47
	.db #0x07	; 7
	.db #0x5c	; 92
	.db #0x07	; 7
	.db #0x9a	; 154
	.db #0x07	; 7
	.db #0xaf	; 175
	.db #0x07	; 7
	.db #0xe0	; 224
	.db #0x07	; 7
	.db #0x1f	; 31
	.db #0x08	; 8
	.db #0x34	; 52	'4'
	.db #0x08	; 8
	.db #0x61	; 97	'a'
	.db #0x08	; 8
	.db #0x9f	; 159
	.db #0x08	; 8
	.db #0xb4	; 180
	.db #0x08	; 8
	.db #0xe0	; 224
	.db #0x07	; 7
	.db #0xe1	; 225
	.db #0x08	; 8
	.db #0xf6	; 246
	.db #0x08	; 8
	.db #0x23	; 35
	.db #0x09	; 9
	.db #0x62	; 98	'b'
	.db #0x09	; 9
	.db #0x77	; 119	'w'
	.db #0x09	; 9
	.db #0xe0	; 224
	.db #0x07	; 7
	.db #0xa4	; 164
	.db #0x09	; 9
	.db #0xbd	; 189
	.db #0x09	; 9
	.db #0x23	; 35
	.db #0x09	; 9
	.db #0xea	; 234
	.db #0x09	; 9
	.db #0xf2	; 242
	.db #0x09	; 9
	.db #0xfe	; 254
	.db #0x09	; 9
	.db #0x0f	; 15
	.db #0x0a	; 10
	.db #0x1f	; 31
	.db #0x0a	; 10
	.db #0x43	; 67	'C'
	.db #0x0a	; 10
	.db #0x54	; 84	'T'
	.db #0x04	; 4
	.db #0x7b	; 123
	.db #0x04	; 4
	.db #0x1b	; 27
	.db #0x02	; 2
	.db #0xe6	; 230
	.db #0x04	; 4
	.db #0x0c	; 12
	.db #0x05	; 5
	.db #0x1b	; 27
	.db #0x02	; 2
	.db #0x77	; 119	'w'
	.db #0x05	; 5
	.db #0xb0	; 176
	.db #0x01	; 1
	.db #0x1b	; 27
	.db #0x02	; 2
	.db #0xe6	; 230
	.db #0x04	; 4
	.db #0x0c	; 12
	.db #0x05	; 5
	.db #0x1b	; 27
	.db #0x02	; 2
	.db #0x9e	; 158
	.db #0x05	; 5
	.db #0xc1	; 193
	.db #0x05	; 5
	.db #0x1b	; 27
	.db #0x02	; 2
	.db #0x35	; 53	'5'
	.db #0x06	; 6
	.db #0xc3	; 195
	.db #0x03	; 3
	.db #0x1b	; 27
	.db #0x02	; 2
	.db #0x72	; 114	'r'
	.db #0x0a	; 10
	.db #0x8b	; 139
	.db #0x0a	; 10
	.db #0x98	; 152
	.db #0x0a	; 10
	.db #0x58	; 88	'X'
	.db #0x06	; 6
	.db #0xc3	; 195
	.db #0x03	; 3
	.db #0x1b	; 27
	.db #0x02	; 2
	.db #0xd1	; 209
	.db #0xb1	; 177
	.db #0x02	; 2
	.db #0xc0	; 192
	.db #0x6f	; 111	'o'
	.db #0x71	; 113	'q'
	.db #0x73	; 115	's'
	.db #0xb1	; 177
	.db #0x04	; 4
	.db #0x74	; 116	't'
	.db #0x74	; 116	't'
	.db #0x78	; 120	'x'
	.db #0x78	; 120	'x'
	.db #0x79	; 121	'y'
	.db #0xb1	; 177
	.db #0x02	; 2
	.db #0x7d	; 125
	.db #0xb1	; 177
	.db #0x04	; 4
	.db #0x7b	; 123
	.db #0xb1	; 177
	.db #0x02	; 2
	.db #0x74	; 116	't'
	.db #0x76	; 118	'v'
	.db #0x78	; 120	'x'
	.db #0xb1	; 177
	.db #0x04	; 4
	.db #0x79	; 121	'y'
	.db #0x78	; 120	'x'
	.db #0x76	; 118	'v'
	.db #0x74	; 116	't'
	.db #0x73	; 115	's'
	.db #0xb1	; 177
	.db #0x02	; 2
	.db #0x74	; 116	't'
	.db #0x76	; 118	'v'
	.db #0x00	; 0
	.db #0xb1	; 177
	.db #0x08	; 8
	.db #0xd0	; 208
	.db #0xd2	; 210
	.db #0xce	; 206
	.db #0xb1	; 177
	.db #0x01	; 1
	.db #0x5c	; 92
	.db #0xcd	; 205
	.db #0xd0	; 208
	.db #0xcc	; 204
	.db #0xb1	; 177
	.db #0x02	; 2
	.db #0xd0	; 208
	.db #0xce	; 206
	.db #0xb1	; 177
	.db #0x01	; 1
	.db #0x60	; 96
	.db #0xcd	; 205
	.db #0xd0	; 208
	.db #0xcc	; 204
	.db #0xb1	; 177
	.db #0x02	; 2
	.db #0xd0	; 208
	.db #0xce	; 206
	.db #0xb1	; 177
	.db #0x01	; 1
	.db #0x57	; 87	'W'
	.db #0xcd	; 205
	.db #0xd0	; 208
	.db #0xcc	; 204
	.db #0xb1	; 177
	.db #0x02	; 2
	.db #0xd0	; 208
	.db #0xce	; 206
	.db #0xb1	; 177
	.db #0x01	; 1
	.db #0x60	; 96
	.db #0xcd	; 205
	.db #0xd0	; 208
	.db #0xcc	; 204
	.db #0xb1	; 177
	.db #0x02	; 2
	.db #0xd0	; 208
	.db #0xce	; 206
	.db #0xb1	; 177
	.db #0x01	; 1
	.db #0x5c	; 92
	.db #0xcd	; 205
	.db #0xd0	; 208
	.db #0xcc	; 204
	.db #0xb1	; 177
	.db #0x02	; 2
	.db #0xd0	; 208
	.db #0xce	; 206
	.db #0x5e	; 94
	.db #0xb1	; 177
	.db #0x01	; 1
	.db #0x5c	; 92
	.db #0xcd	; 205
	.db #0xd0	; 208
	.db #0xcc	; 204
	.db #0xb1	; 177
	.db #0x02	; 2
	.db #0xd0	; 208
	.db #0xce	; 206
	.db #0xb1	; 177
	.db #0x01	; 1
	.db #0x57	; 87	'W'
	.db #0xcd	; 205
	.db #0xd0	; 208
	.db #0xce	; 206
	.db #0x59	; 89	'Y'
	.db #0xcd	; 205
	.db #0xd0	; 208
	.db #0xce	; 206
	.db #0xb1	; 177
	.db #0x02	; 2
	.db #0x57	; 87	'W'
	.db #0x5e	; 94
	.db #0xcd	; 205
	.db #0xd0	; 208
	.db #0xcc	; 204
	.db #0xd0	; 208
	.db #0xcb	; 203
	.db #0xb1	; 177
	.db #0x06	; 6
	.db #0xd0	; 208
	.db #0xce	; 206
	.db #0xb1	; 177
	.db #0x01	; 1
	.db #0x57	; 87	'W'
	.db #0xcd	; 205
	.db #0xd0	; 208
	.db #0xcc	; 204
	.db #0xb1	; 177
	.db #0x02	; 2
	.db #0xd0	; 208
	.db #0xce	; 206
	.db #0x5b	; 91
	.db #0xcd	; 205
	.db #0xd0	; 208
	.db #0xcc	; 204
	.db #0xd0	; 208
	.db #0xcb	; 203
	.db #0xd0	; 208
	.db #0x00	; 0
	.db #0xd3	; 211
	.db #0xcf	; 207
	.db #0xb1	; 177
	.db #0x01	; 1
	.db #0x6c	; 108	'l'
	.db #0xc0	; 192
	.db #0x6c	; 108	'l'
	.db #0xc0	; 192
	.db #0xa8	; 168
	.db #0xb1	; 177
	.db #0x03	; 3
	.db #0xc0	; 192
	.db #0xb1	; 177
	.db #0x01	; 1
	.db #0x6c	; 108	'l'
	.db #0xb1	; 177
	.db #0x03	; 3
	.db #0xc0	; 192
	.db #0xb1	; 177
	.db #0x01	; 1
	.db #0xa8	; 168
	.db #0xb1	; 177
	.db #0x03	; 3
	.db #0xc0	; 192
	.db #0xb1	; 177
	.db #0x01	; 1
	.db #0x6c	; 108	'l'
	.db #0xb1	; 177
	.db #0x03	; 3
	.db #0xc0	; 192
	.db #0xb1	; 177
	.db #0x01	; 1
	.db #0xa8	; 168
	.db #0xc0	; 192
	.db #0x6c	; 108	'l'
	.db #0xb1	; 177
	.db #0x03	; 3
	.db #0xc0	; 192
	.db #0xb1	; 177
	.db #0x01	; 1
	.db #0x6c	; 108	'l'
	.db #0xc0	; 192
	.db #0xa8	; 168
	.db #0xc0	; 192
	.db #0x6c	; 108	'l'
	.db #0xc0	; 192
	.db #0x6c	; 108	'l'
	.db #0xb1	; 177
	.db #0x03	; 3
	.db #0xc0	; 192
	.db #0xb1	; 177
	.db #0x01	; 1
	.db #0xa8	; 168
	.db #0xb1	; 177
	.db #0x03	; 3
	.db #0xc0	; 192
	.db #0xb1	; 177
	.db #0x01	; 1
	.db #0x6c	; 108	'l'
	.db #0xb1	; 177
	.db #0x03	; 3
	.db #0xc0	; 192
	.db #0xb1	; 177
	.db #0x01	; 1
	.db #0xa8	; 168
	.db #0xb1	; 177
	.db #0x03	; 3
	.db #0xc0	; 192
	.db #0xb1	; 177
	.db #0x01	; 1
	.db #0x6c	; 108	'l'
	.db #0xb1	; 177
	.db #0x03	; 3
	.db #0xc0	; 192
	.db #0xb1	; 177
	.db #0x01	; 1
	.db #0xa8	; 168
	.db #0xc0	; 192
	.db #0x6c	; 108	'l'
	.db #0xb1	; 177
	.db #0x03	; 3
	.db #0xc0	; 192
	.db #0xb1	; 177
	.db #0x01	; 1
	.db #0xa8	; 168
	.db #0xc0	; 192
	.db #0xa8	; 168
	.db #0xc0	; 192
	.db #0xa8	; 168
	.db #0xc0	; 192
	.db #0x00	; 0
	.db #0xd1	; 209
	.db #0xb1	; 177
	.db #0x02	; 2
	.db #0xc0	; 192
	.db #0x6f	; 111	'o'
	.db #0x71	; 113	'q'
	.db #0x73	; 115	's'
	.db #0xb1	; 177
	.db #0x04	; 4
	.db #0x74	; 116	't'
	.db #0x74	; 116	't'
	.db #0x78	; 120	'x'
	.db #0x78	; 120	'x'
	.db #0x79	; 121	'y'
	.db #0xb1	; 177
	.db #0x02	; 2
	.db #0x7d	; 125
	.db #0xb1	; 177
	.db #0x04	; 4
	.db #0x7b	; 123
	.db #0xb1	; 177
	.db #0x02	; 2
	.db #0x74	; 116	't'
	.db #0x76	; 118	'v'
	.db #0x78	; 120	'x'
	.db #0xb1	; 177
	.db #0x04	; 4
	.db #0x79	; 121	'y'
	.db #0x76	; 118	'v'
	.db #0x74	; 116	't'
	.db #0xb1	; 177
	.db #0x02	; 2
	.db #0x73	; 115	's'
	.db #0xb1	; 177
	.db #0x04	; 4
	.db #0x74	; 116	't'
	.db #0xb1	; 177
	.db #0x06	; 6
	.db #0xc0	; 192
	.db #0x00	; 0
	.db #0xb1	; 177
	.db #0x08	; 8
	.db #0xd0	; 208
	.db #0xd2	; 210
	.db #0xce	; 206
	.db #0xb1	; 177
	.db #0x01	; 1
	.db #0x5c	; 92
	.db #0xcd	; 205
	.db #0xd0	; 208
	.db #0xcc	; 204
	.db #0xb1	; 177
	.db #0x02	; 2
	.db #0xd0	; 208
	.db #0xce	; 206
	.db #0xb1	; 177
	.db #0x01	; 1
	.db #0x60	; 96
	.db #0xcd	; 205
	.db #0xd0	; 208
	.db #0xcc	; 204
	.db #0xb1	; 177
	.db #0x02	; 2
	.db #0xd0	; 208
	.db #0xce	; 206
	.db #0xb1	; 177
	.db #0x01	; 1
	.db #0x57	; 87	'W'
	.db #0xcd	; 205
	.db #0xd0	; 208
	.db #0xcc	; 204
	.db #0xb1	; 177
	.db #0x02	; 2
	.db #0xd0	; 208
	.db #0xce	; 206
	.db #0xb1	; 177
	.db #0x01	; 1
	.db #0x60	; 96
	.db #0xcd	; 205
	.db #0xd0	; 208
	.db #0xcc	; 204
	.db #0xb1	; 177
	.db #0x02	; 2
	.db #0xd0	; 208
	.db #0xce	; 206
	.db #0xb1	; 177
	.db #0x01	; 1
	.db #0x5c	; 92
	.db #0xcd	; 205
	.db #0xd0	; 208
	.db #0xcc	; 204
	.db #0xb1	; 177
	.db #0x02	; 2
	.db #0xd0	; 208
	.db #0xce	; 206
	.db #0x5e	; 94
	.db #0xb1	; 177
	.db #0x01	; 1
	.db #0x5c	; 92
	.db #0xcd	; 205
	.db #0xd0	; 208
	.db #0xcc	; 204
	.db #0xb1	; 177
	.db #0x02	; 2
	.db #0xd0	; 208
	.db #0xce	; 206
	.db #0xb1	; 177
	.db #0x01	; 1
	.db #0x57	; 87	'W'
	.db #0xcd	; 205
	.db #0xd0	; 208
	.db #0xce	; 206
	.db #0x59	; 89	'Y'
	.db #0xcd	; 205
	.db #0xd0	; 208
	.db #0xce	; 206
	.db #0xb1	; 177
	.db #0x02	; 2
	.db #0x57	; 87	'W'
	.db #0x5e	; 94
	.db #0xcd	; 205
	.db #0xd0	; 208
	.db #0xcc	; 204
	.db #0xd0	; 208
	.db #0xcb	; 203
	.db #0xb1	; 177
	.db #0x06	; 6
	.db #0xd0	; 208
	.db #0xce	; 206
	.db #0xb1	; 177
	.db #0x01	; 1
	.db #0x57	; 87	'W'
	.db #0xcd	; 205
	.db #0xd0	; 208
	.db #0xcc	; 204
	.db #0xb1	; 177
	.db #0x02	; 2
	.db #0xd0	; 208
	.db #0xce	; 206
	.db #0x5c	; 92
	.db #0xcd	; 205
	.db #0xd0	; 208
	.db #0xcc	; 204
	.db #0xd0	; 208
	.db #0xcb	; 203
	.db #0xd0	; 208
	.db #0x00	; 0
	.db #0xd1	; 209
	.db #0xb1	; 177
	.db #0x02	; 2
	.db #0xc0	; 192
	.db #0x71	; 113	'q'
	.db #0x76	; 118	'v'
	.db #0x71	; 113	'q'
	.db #0xb1	; 177
	.db #0x04	; 4
	.db #0x7a	; 122	'z'
	.db #0x78	; 120	'x'
	.db #0x76	; 118	'v'
	.db #0x74	; 116	't'
	.db #0x78	; 120	'x'
	.db #0x76	; 118	'v'
	.db #0x74	; 116	't'
	.db #0xb1	; 177
	.db #0x02	; 2
	.db #0x73	; 115	's'
	.db #0xb1	; 177
	.db #0x01	; 1
	.db #0x76	; 118	'v'
	.db #0xb1	; 177
	.db #0x0d	; 13
	.db #0xc0	; 192
	.db #0xb1	; 177
	.db #0x04	; 4
	.db #0x76	; 118	'v'
	.db #0xb1	; 177
	.db #0x01	; 1
	.db #0x71	; 113	'q'
	.db #0xb1	; 177
	.db #0x07	; 7
	.db #0xc0	; 192
	.db #0x00	; 0
	.db #0xb1	; 177
	.db #0x08	; 8
	.db #0xd0	; 208
	.db #0xce	; 206
	.db #0xb1	; 177
	.db #0x01	; 1
	.db #0x5e	; 94
	.db #0xcd	; 205
	.db #0xd0	; 208
	.db #0xcc	; 204
	.db #0xb1	; 177
	.db #0x02	; 2
	.db #0xd0	; 208
	.db #0xce	; 206
	.db #0xb1	; 177
	.db #0x01	; 1
	.db #0x59	; 89	'Y'
	.db #0xcd	; 205
	.db #0xd0	; 208
	.db #0xcc	; 204
	.db #0xb1	; 177
	.db #0x02	; 2
	.db #0xd0	; 208
	.db #0xce	; 206
	.db #0xb1	; 177
	.db #0x01	; 1
	.db #0x5e	; 94
	.db #0xcd	; 205
	.db #0xd0	; 208
	.db #0xcc	; 204
	.db #0xb1	; 177
	.db #0x02	; 2
	.db #0xd0	; 208
	.db #0xce	; 206
	.db #0xb1	; 177
	.db #0x01	; 1
	.db #0x59	; 89	'Y'
	.db #0xcd	; 205
	.db #0xd0	; 208
	.db #0xcc	; 204
	.db #0xb1	; 177
	.db #0x02	; 2
	.db #0xd0	; 208
	.db #0xce	; 206
	.db #0xb1	; 177
	.db #0x01	; 1
	.db #0x5e	; 94
	.db #0xcd	; 205
	.db #0xd0	; 208
	.db #0xcc	; 204
	.db #0xb1	; 177
	.db #0x02	; 2
	.db #0xd0	; 208
	.db #0xce	; 206
	.db #0xb1	; 177
	.db #0x01	; 1
	.db #0x59	; 89	'Y'
	.db #0xcd	; 205
	.db #0xd0	; 208
	.db #0xcc	; 204
	.db #0xb1	; 177
	.db #0x02	; 2
	.db #0xd0	; 208
	.db #0xce	; 206
	.db #0xb1	; 177
	.db #0x01	; 1
	.db #0x5e	; 94
	.db #0xcd	; 205
	.db #0xd0	; 208
	.db #0xcc	; 204
	.db #0xb1	; 177
	.db #0x02	; 2
	.db #0xd0	; 208
	.db #0xce	; 206
	.db #0xb1	; 177
	.db #0x01	; 1
	.db #0x59	; 89	'Y'
	.db #0xcd	; 205
	.db #0xd0	; 208
	.db #0xce	; 206
	.db #0xb1	; 177
	.db #0x02	; 2
	.db #0x57	; 87	'W'
	.db #0xcd	; 205
	.db #0xd0	; 208
	.db #0xcc	; 204
	.db #0xd0	; 208
	.db #0xcb	; 203
	.db #0xd0	; 208
	.db #0xca	; 202
	.db #0xd0	; 208
	.db #0xc9	; 201
	.db #0xb1	; 177
	.db #0x04	; 4
	.db #0xd0	; 208
	.db #0xce	; 206
	.db #0xb1	; 177
	.db #0x01	; 1
	.db #0x57	; 87	'W'
	.db #0xcd	; 205
	.db #0xd0	; 208
	.db #0xce	; 206
	.db #0xd0	; 208
	.db #0xcd	; 205
	.db #0xd0	; 208
	.db #0xcc	; 204
	.db #0xb1	; 177
	.db #0x02	; 2
	.db #0x5b	; 91
	.db #0xcb	; 203
	.db #0xd0	; 208
	.db #0xca	; 202
	.db #0xd0	; 208
	.db #0xc9	; 201
	.db #0xd0	; 208
	.db #0x00	; 0
	.db #0xd1	; 209
	.db #0xb1	; 177
	.db #0x02	; 2
	.db #0xc0	; 192
	.db #0x71	; 113	'q'
	.db #0x76	; 118	'v'
	.db #0x71	; 113	'q'
	.db #0xb1	; 177
	.db #0x04	; 4
	.db #0x7a	; 122	'z'
	.db #0x78	; 120	'x'
	.db #0x76	; 118	'v'
	.db #0x74	; 116	't'
	.db #0x78	; 120	'x'
	.db #0x76	; 118	'v'
	.db #0x74	; 116	't'
	.db #0xb1	; 177
	.db #0x02	; 2
	.db #0x73	; 115	's'
	.db #0xb1	; 177
	.db #0x01	; 1
	.db #0x76	; 118	'v'
	.db #0xb1	; 177
	.db #0x0d	; 13
	.db #0xc0	; 192
	.db #0xb1	; 177
	.db #0x04	; 4
	.db #0x76	; 118	'v'
	.db #0xb1	; 177
	.db #0x01	; 1
	.db #0x7b	; 123
	.db #0xb1	; 177
	.db #0x07	; 7
	.db #0xc0	; 192
	.db #0x00	; 0
	.db #0xb1	; 177
	.db #0x08	; 8
	.db #0xd0	; 208
	.db #0xce	; 206
	.db #0xb1	; 177
	.db #0x01	; 1
	.db #0x5e	; 94
	.db #0xcd	; 205
	.db #0xd0	; 208
	.db #0xcc	; 204
	.db #0xb1	; 177
	.db #0x02	; 2
	.db #0xd0	; 208
	.db #0xce	; 206
	.db #0xb1	; 177
	.db #0x01	; 1
	.db #0x59	; 89	'Y'
	.db #0xcd	; 205
	.db #0xd0	; 208
	.db #0xcc	; 204
	.db #0xb1	; 177
	.db #0x02	; 2
	.db #0xd0	; 208
	.db #0xce	; 206
	.db #0xb1	; 177
	.db #0x01	; 1
	.db #0x5e	; 94
	.db #0xcd	; 205
	.db #0xd0	; 208
	.db #0xcc	; 204
	.db #0xb1	; 177
	.db #0x02	; 2
	.db #0xd0	; 208
	.db #0xce	; 206
	.db #0xb1	; 177
	.db #0x01	; 1
	.db #0x59	; 89	'Y'
	.db #0xcd	; 205
	.db #0xd0	; 208
	.db #0xcc	; 204
	.db #0xb1	; 177
	.db #0x02	; 2
	.db #0xd0	; 208
	.db #0xce	; 206
	.db #0xb1	; 177
	.db #0x01	; 1
	.db #0x5e	; 94
	.db #0xcd	; 205
	.db #0xd0	; 208
	.db #0xcc	; 204
	.db #0xb1	; 177
	.db #0x02	; 2
	.db #0xd0	; 208
	.db #0xce	; 206
	.db #0xb1	; 177
	.db #0x01	; 1
	.db #0x59	; 89	'Y'
	.db #0xcd	; 205
	.db #0xd0	; 208
	.db #0xcc	; 204
	.db #0xb1	; 177
	.db #0x02	; 2
	.db #0xd0	; 208
	.db #0xce	; 206
	.db #0xb1	; 177
	.db #0x01	; 1
	.db #0x5e	; 94
	.db #0xcd	; 205
	.db #0xd0	; 208
	.db #0xcc	; 204
	.db #0xb1	; 177
	.db #0x02	; 2
	.db #0xd0	; 208
	.db #0xce	; 206
	.db #0xb1	; 177
	.db #0x01	; 1
	.db #0x59	; 89	'Y'
	.db #0xcd	; 205
	.db #0xd0	; 208
	.db #0xce	; 206
	.db #0xb1	; 177
	.db #0x02	; 2
	.db #0x57	; 87	'W'
	.db #0xcd	; 205
	.db #0xd0	; 208
	.db #0xcc	; 204
	.db #0xd0	; 208
	.db #0xcb	; 203
	.db #0xd0	; 208
	.db #0xca	; 202
	.db #0xd0	; 208
	.db #0xc9	; 201
	.db #0xb1	; 177
	.db #0x04	; 4
	.db #0xd0	; 208
	.db #0xce	; 206
	.db #0xb1	; 177
	.db #0x02	; 2
	.db #0x63	; 99	'c'
	.db #0xcd	; 205
	.db #0xd0	; 208
	.db #0xcc	; 204
	.db #0x57	; 87	'W'
	.db #0xcb	; 203
	.db #0xd0	; 208
	.db #0xca	; 202
	.db #0xd0	; 208
	.db #0xc9	; 201
	.db #0xd0	; 208
	.db #0x00	; 0
	.db #0xd1	; 209
	.db #0xb1	; 177
	.db #0x02	; 2
	.db #0xc0	; 192
	.db #0x71	; 113	'q'
	.db #0x76	; 118	'v'
	.db #0x71	; 113	'q'
	.db #0xb1	; 177
	.db #0x04	; 4
	.db #0x7a	; 122	'z'
	.db #0x78	; 120	'x'
	.db #0x76	; 118	'v'
	.db #0x74	; 116	't'
	.db #0x78	; 120	'x'
	.db #0x76	; 118	'v'
	.db #0x74	; 116	't'
	.db #0xb1	; 177
	.db #0x02	; 2
	.db #0x73	; 115	's'
	.db #0xb1	; 177
	.db #0x01	; 1
	.db #0x76	; 118	'v'
	.db #0xb1	; 177
	.db #0x0d	; 13
	.db #0xc0	; 192
	.db #0xb1	; 177
	.db #0x04	; 4
	.db #0x76	; 118	'v'
	.db #0xb1	; 177
	.db #0x02	; 2
	.db #0x7b	; 123
	.db #0x7d	; 125
	.db #0x7b	; 123
	.db #0x7d	; 125
	.db #0x00	; 0
	.db #0xd1	; 209
	.db #0xb1	; 177
	.db #0x02	; 2
	.db #0x7b	; 123
	.db #0x6f	; 111	'o'
	.db #0x71	; 113	'q'
	.db #0x73	; 115	's'
	.db #0xb1	; 177
	.db #0x04	; 4
	.db #0x74	; 116	't'
	.db #0x76	; 118	'v'
	.db #0x78	; 120	'x'
	.db #0x79	; 121	'y'
	.db #0x7b	; 123
	.db #0xb1	; 177
	.db #0x02	; 2
	.db #0x7f	; 127
	.db #0xb1	; 177
	.db #0x04	; 4
	.db #0x80	; 128
	.db #0xb1	; 177
	.db #0x02	; 2
	.db #0x7f	; 127
	.db #0x7d	; 125
	.db #0x7b	; 123
	.db #0xb1	; 177
	.db #0x04	; 4
	.db #0x79	; 121	'y'
	.db #0x78	; 120	'x'
	.db #0x76	; 118	'v'
	.db #0x74	; 116	't'
	.db #0x73	; 115	's'
	.db #0xb1	; 177
	.db #0x01	; 1
	.db #0x7d	; 125
	.db #0xc0	; 192
	.db #0x7b	; 123
	.db #0xc0	; 192
	.db #0x00	; 0
	.db #0xb1	; 177
	.db #0x08	; 8
	.db #0xc0	; 192
	.db #0xd2	; 210
	.db #0xce	; 206
	.db #0xb1	; 177
	.db #0x01	; 1
	.db #0x5c	; 92
	.db #0xcd	; 205
	.db #0xd0	; 208
	.db #0xcc	; 204
	.db #0xb1	; 177
	.db #0x02	; 2
	.db #0xd0	; 208
	.db #0xce	; 206
	.db #0xb1	; 177
	.db #0x01	; 1
	.db #0x60	; 96
	.db #0xcd	; 205
	.db #0xd0	; 208
	.db #0xcc	; 204
	.db #0xb1	; 177
	.db #0x02	; 2
	.db #0xd0	; 208
	.db #0xce	; 206
	.db #0xb1	; 177
	.db #0x01	; 1
	.db #0x57	; 87	'W'
	.db #0xcd	; 205
	.db #0xd0	; 208
	.db #0xcc	; 204
	.db #0xb1	; 177
	.db #0x02	; 2
	.db #0xd0	; 208
	.db #0xce	; 206
	.db #0xb1	; 177
	.db #0x01	; 1
	.db #0x60	; 96
	.db #0xcd	; 205
	.db #0xd0	; 208
	.db #0xcc	; 204
	.db #0xb1	; 177
	.db #0x02	; 2
	.db #0xd0	; 208
	.db #0xce	; 206
	.db #0xb1	; 177
	.db #0x01	; 1
	.db #0x5c	; 92
	.db #0xcd	; 205
	.db #0xd0	; 208
	.db #0xcc	; 204
	.db #0xb1	; 177
	.db #0x02	; 2
	.db #0xd0	; 208
	.db #0xce	; 206
	.db #0x5e	; 94
	.db #0xb1	; 177
	.db #0x01	; 1
	.db #0x5c	; 92
	.db #0xcd	; 205
	.db #0xd0	; 208
	.db #0xcc	; 204
	.db #0xb1	; 177
	.db #0x02	; 2
	.db #0xd0	; 208
	.db #0xce	; 206
	.db #0xb1	; 177
	.db #0x01	; 1
	.db #0x57	; 87	'W'
	.db #0xcd	; 205
	.db #0xd0	; 208
	.db #0xce	; 206
	.db #0x59	; 89	'Y'
	.db #0xcd	; 205
	.db #0xd0	; 208
	.db #0xce	; 206
	.db #0xb1	; 177
	.db #0x02	; 2
	.db #0x57	; 87	'W'
	.db #0x5e	; 94
	.db #0xcd	; 205
	.db #0xd0	; 208
	.db #0xcc	; 204
	.db #0xd0	; 208
	.db #0xcb	; 203
	.db #0xb1	; 177
	.db #0x06	; 6
	.db #0xd0	; 208
	.db #0xce	; 206
	.db #0xb1	; 177
	.db #0x01	; 1
	.db #0x57	; 87	'W'
	.db #0xcd	; 205
	.db #0xd0	; 208
	.db #0xcc	; 204
	.db #0xb1	; 177
	.db #0x02	; 2
	.db #0xd0	; 208
	.db #0xce	; 206
	.db #0x5b	; 91
	.db #0xcd	; 205
	.db #0xd0	; 208
	.db #0xcc	; 204
	.db #0xd0	; 208
	.db #0xcb	; 203
	.db #0xd0	; 208
	.db #0x00	; 0
	.db #0xd1	; 209
	.db #0xb1	; 177
	.db #0x02	; 2
	.db #0xc0	; 192
	.db #0x6f	; 111	'o'
	.db #0x71	; 113	'q'
	.db #0x73	; 115	's'
	.db #0xb1	; 177
	.db #0x04	; 4
	.db #0x74	; 116	't'
	.db #0x76	; 118	'v'
	.db #0x78	; 120	'x'
	.db #0x79	; 121	'y'
	.db #0x7b	; 123
	.db #0xb1	; 177
	.db #0x02	; 2
	.db #0x7f	; 127
	.db #0xb1	; 177
	.db #0x04	; 4
	.db #0x80	; 128
	.db #0xb1	; 177
	.db #0x02	; 2
	.db #0x7f	; 127
	.db #0x7d	; 125
	.db #0x7b	; 123
	.db #0xb1	; 177
	.db #0x04	; 4
	.db #0x79	; 121	'y'
	.db #0x78	; 120	'x'
	.db #0x76	; 118	'v'
	.db #0x73	; 115	's'
	.db #0xb1	; 177
	.db #0x02	; 2
	.db #0x74	; 116	't'
	.db #0xb1	; 177
	.db #0x06	; 6
	.db #0xc0	; 192
	.db #0x00	; 0
	.db #0xb1	; 177
	.db #0x08	; 8
	.db #0xd0	; 208
	.db #0xd2	; 210
	.db #0xce	; 206
	.db #0xb1	; 177
	.db #0x01	; 1
	.db #0x5c	; 92
	.db #0xcd	; 205
	.db #0xd0	; 208
	.db #0xcc	; 204
	.db #0xb1	; 177
	.db #0x02	; 2
	.db #0xd0	; 208
	.db #0xce	; 206
	.db #0xb1	; 177
	.db #0x01	; 1
	.db #0x60	; 96
	.db #0xcd	; 205
	.db #0xd0	; 208
	.db #0xcc	; 204
	.db #0xb1	; 177
	.db #0x02	; 2
	.db #0xd0	; 208
	.db #0xce	; 206
	.db #0xb1	; 177
	.db #0x01	; 1
	.db #0x57	; 87	'W'
	.db #0xcd	; 205
	.db #0xd0	; 208
	.db #0xcc	; 204
	.db #0xb1	; 177
	.db #0x02	; 2
	.db #0xd0	; 208
	.db #0xce	; 206
	.db #0xb1	; 177
	.db #0x01	; 1
	.db #0x60	; 96
	.db #0xcd	; 205
	.db #0xd0	; 208
	.db #0xcc	; 204
	.db #0xb1	; 177
	.db #0x02	; 2
	.db #0xd0	; 208
	.db #0xce	; 206
	.db #0xb1	; 177
	.db #0x01	; 1
	.db #0x5c	; 92
	.db #0xcd	; 205
	.db #0xd0	; 208
	.db #0xcc	; 204
	.db #0xb1	; 177
	.db #0x02	; 2
	.db #0xd0	; 208
	.db #0xce	; 206
	.db #0x5e	; 94
	.db #0xb1	; 177
	.db #0x01	; 1
	.db #0x5c	; 92
	.db #0xcd	; 205
	.db #0xd0	; 208
	.db #0xcc	; 204
	.db #0xb1	; 177
	.db #0x02	; 2
	.db #0xd0	; 208
	.db #0xce	; 206
	.db #0xb1	; 177
	.db #0x01	; 1
	.db #0x57	; 87	'W'
	.db #0xcd	; 205
	.db #0xd0	; 208
	.db #0xce	; 206
	.db #0x59	; 89	'Y'
	.db #0xcd	; 205
	.db #0xd0	; 208
	.db #0xce	; 206
	.db #0xb1	; 177
	.db #0x02	; 2
	.db #0x57	; 87	'W'
	.db #0x5e	; 94
	.db #0xcd	; 205
	.db #0xd0	; 208
	.db #0xcc	; 204
	.db #0xd0	; 208
	.db #0xcb	; 203
	.db #0xb1	; 177
	.db #0x06	; 6
	.db #0xd0	; 208
	.db #0xce	; 206
	.db #0xb1	; 177
	.db #0x01	; 1
	.db #0x63	; 99	'c'
	.db #0xcd	; 205
	.db #0xd0	; 208
	.db #0xcc	; 204
	.db #0xb1	; 177
	.db #0x02	; 2
	.db #0xd0	; 208
	.db #0xce	; 206
	.db #0x5c	; 92
	.db #0xcd	; 205
	.db #0xd0	; 208
	.db #0xcc	; 204
	.db #0xd0	; 208
	.db #0xcb	; 203
	.db #0xd0	; 208
	.db #0x00	; 0
	.db #0xd1	; 209
	.db #0xb1	; 177
	.db #0x02	; 2
	.db #0xc0	; 192
	.db #0x6f	; 111	'o'
	.db #0x71	; 113	'q'
	.db #0x73	; 115	's'
	.db #0xb1	; 177
	.db #0x04	; 4
	.db #0x74	; 116	't'
	.db #0x76	; 118	'v'
	.db #0x78	; 120	'x'
	.db #0x79	; 121	'y'
	.db #0x7b	; 123
	.db #0xb1	; 177
	.db #0x02	; 2
	.db #0x7f	; 127
	.db #0xb1	; 177
	.db #0x04	; 4
	.db #0x80	; 128
	.db #0xb1	; 177
	.db #0x02	; 2
	.db #0x82	; 130
	.db #0x80	; 128
	.db #0x7f	; 127
	.db #0xb1	; 177
	.db #0x04	; 4
	.db #0x7d	; 125
	.db #0x7b	; 123
	.db #0x79	; 121	'y'
	.db #0x78	; 120	'x'
	.db #0x76	; 118	'v'
	.db #0xb1	; 177
	.db #0x01	; 1
	.db #0x80	; 128
	.db #0xc0	; 192
	.db #0x7f	; 127
	.db #0xc0	; 192
	.db #0x00	; 0
	.db #0xd1	; 209
	.db #0xb1	; 177
	.db #0x02	; 2
	.db #0xc0	; 192
	.db #0x71	; 113	'q'
	.db #0x76	; 118	'v'
	.db #0x71	; 113	'q'
	.db #0xb1	; 177
	.db #0x04	; 4
	.db #0x7a	; 122	'z'
	.db #0x7b	; 123
	.db #0x7d	; 125
	.db #0x7b	; 123
	.db #0x7a	; 122	'z'
	.db #0x78	; 120	'x'
	.db #0x76	; 118	'v'
	.db #0xb1	; 177
	.db #0x02	; 2
	.db #0x74	; 116	't'
	.db #0xb1	; 177
	.db #0x01	; 1
	.db #0x73	; 115	's'
	.db #0xb1	; 177
	.db #0x0d	; 13
	.db #0xc0	; 192
	.db #0xb1	; 177
	.db #0x04	; 4
	.db #0x74	; 116	't'
	.db #0xb1	; 177
	.db #0x01	; 1
	.db #0x71	; 113	'q'
	.db #0xb1	; 177
	.db #0x07	; 7
	.db #0xc0	; 192
	.db #0x00	; 0
	.db #0xb1	; 177
	.db #0x08	; 8
	.db #0xd0	; 208
	.db #0xce	; 206
	.db #0xb1	; 177
	.db #0x01	; 1
	.db #0x5e	; 94
	.db #0xcd	; 205
	.db #0xd0	; 208
	.db #0xcc	; 204
	.db #0xb1	; 177
	.db #0x02	; 2
	.db #0xd0	; 208
	.db #0xce	; 206
	.db #0xb1	; 177
	.db #0x01	; 1
	.db #0x59	; 89	'Y'
	.db #0xcd	; 205
	.db #0xd0	; 208
	.db #0xcc	; 204
	.db #0xb1	; 177
	.db #0x02	; 2
	.db #0xd0	; 208
	.db #0xce	; 206
	.db #0xb1	; 177
	.db #0x01	; 1
	.db #0x5e	; 94
	.db #0xcd	; 205
	.db #0xd0	; 208
	.db #0xcc	; 204
	.db #0xb1	; 177
	.db #0x02	; 2
	.db #0xd0	; 208
	.db #0xce	; 206
	.db #0xb1	; 177
	.db #0x01	; 1
	.db #0x59	; 89	'Y'
	.db #0xcd	; 205
	.db #0xd0	; 208
	.db #0xcc	; 204
	.db #0xb1	; 177
	.db #0x02	; 2
	.db #0xd0	; 208
	.db #0xce	; 206
	.db #0xb1	; 177
	.db #0x01	; 1
	.db #0x5e	; 94
	.db #0xcd	; 205
	.db #0xd0	; 208
	.db #0xcc	; 204
	.db #0xb1	; 177
	.db #0x02	; 2
	.db #0xd0	; 208
	.db #0xce	; 206
	.db #0xb1	; 177
	.db #0x01	; 1
	.db #0x59	; 89	'Y'
	.db #0xcd	; 205
	.db #0xd0	; 208
	.db #0xcc	; 204
	.db #0xb1	; 177
	.db #0x02	; 2
	.db #0xd0	; 208
	.db #0xce	; 206
	.db #0xb1	; 177
	.db #0x01	; 1
	.db #0x5e	; 94
	.db #0xcd	; 205
	.db #0xd0	; 208
	.db #0xcc	; 204
	.db #0xb1	; 177
	.db #0x02	; 2
	.db #0xd0	; 208
	.db #0xce	; 206
	.db #0xb1	; 177
	.db #0x01	; 1
	.db #0x59	; 89	'Y'
	.db #0xcd	; 205
	.db #0xd0	; 208
	.db #0xce	; 206
	.db #0xb1	; 177
	.db #0x02	; 2
	.db #0x57	; 87	'W'
	.db #0xcd	; 205
	.db #0xd0	; 208
	.db #0xcc	; 204
	.db #0xd0	; 208
	.db #0xcb	; 203
	.db #0xd0	; 208
	.db #0xca	; 202
	.db #0xd0	; 208
	.db #0xc9	; 201
	.db #0xb1	; 177
	.db #0x04	; 4
	.db #0xd0	; 208
	.db #0xce	; 206
	.db #0xb1	; 177
	.db #0x01	; 1
	.db #0x57	; 87	'W'
	.db #0xcd	; 205
	.db #0xd0	; 208
	.db #0xce	; 206
	.db #0xd0	; 208
	.db #0xcd	; 205
	.db #0xd0	; 208
	.db #0xcc	; 204
	.db #0xb1	; 177
	.db #0x02	; 2
	.db #0x5e	; 94
	.db #0xcb	; 203
	.db #0xd0	; 208
	.db #0xca	; 202
	.db #0xd0	; 208
	.db #0xc9	; 201
	.db #0xd0	; 208
	.db #0x00	; 0
	.db #0xd1	; 209
	.db #0xb1	; 177
	.db #0x02	; 2
	.db #0xc0	; 192
	.db #0x71	; 113	'q'
	.db #0x76	; 118	'v'
	.db #0x71	; 113	'q'
	.db #0xb1	; 177
	.db #0x04	; 4
	.db #0x7a	; 122	'z'
	.db #0x7b	; 123
	.db #0x7d	; 125
	.db #0x7b	; 123
	.db #0x7f	; 127
	.db #0x80	; 128
	.db #0x82	; 130
	.db #0xb1	; 177
	.db #0x02	; 2
	.db #0x80	; 128
	.db #0xb1	; 177
	.db #0x01	; 1
	.db #0x7f	; 127
	.db #0xb1	; 177
	.db #0x0d	; 13
	.db #0xc0	; 192
	.db #0xb1	; 177
	.db #0x04	; 4
	.db #0x7f	; 127
	.db #0xb1	; 177
	.db #0x01	; 1
	.db #0x87	; 135
	.db #0xb1	; 177
	.db #0x07	; 7
	.db #0xc0	; 192
	.db #0x00	; 0
	.db #0xd1	; 209
	.db #0xb1	; 177
	.db #0x02	; 2
	.db #0xc0	; 192
	.db #0x71	; 113	'q'
	.db #0x76	; 118	'v'
	.db #0x71	; 113	'q'
	.db #0xb1	; 177
	.db #0x04	; 4
	.db #0x7a	; 122	'z'
	.db #0x78	; 120	'x'
	.db #0x76	; 118	'v'
	.db #0x78	; 120	'x'
	.db #0x7a	; 122	'z'
	.db #0x76	; 118	'v'
	.db #0x78	; 120	'x'
	.db #0xb1	; 177
	.db #0x02	; 2
	.db #0x7a	; 122	'z'
	.db #0xb1	; 177
	.db #0x01	; 1
	.db #0x7b	; 123
	.db #0xb1	; 177
	.db #0x0d	; 13
	.db #0xc0	; 192
	.db #0xb1	; 177
	.db #0x04	; 4
	.db #0x76	; 118	'v'
	.db #0xb1	; 177
	.db #0x02	; 2
	.db #0x7b	; 123
	.db #0x7d	; 125
	.db #0x7b	; 123
	.db #0x7d	; 125
	.db #0x00	; 0
	.db #0xb1	; 177
	.db #0x02	; 2
	.db #0x7b	; 123
	.db #0x7d	; 125
	.db #0x7b	; 123
	.db #0x7d	; 125
	.db #0x7b	; 123
	.db #0xc0	; 192
	.db #0x79	; 121	'y'
	.db #0xc0	; 192
	.db #0x76	; 118	'v'
	.db #0xc0	; 192
	.db #0x73	; 115	's'
	.db #0xc0	; 192
	.db #0x6f	; 111	'o'
	.db #0xc0	; 192
	.db #0xb1	; 177
	.db #0x04	; 4
	.db #0x6d	; 109	'm'
	.db #0x00	; 0
	.db #0xb1	; 177
	.db #0x20	; 32
	.db #0xc0	; 192
	.db #0x00	; 0
	.db #0xb1	; 177
	.db #0x04	; 4
	.db #0x6a	; 106	'j'
	.db #0x67	; 103	'g'
	.db #0xb1	; 177
	.db #0x02	; 2
	.db #0x63	; 99	'c'
	.db #0xb1	; 177
	.db #0x06	; 6
	.db #0xc0	; 192
	.db #0xb1	; 177
	.db #0x02	; 2
	.db #0x67	; 103	'g'
	.db #0xb1	; 177
	.db #0x06	; 6
	.db #0xc0	; 192
	.db #0xb1	; 177
	.db #0x02	; 2
	.db #0x6a	; 106	'j'
	.db #0xb1	; 177
	.db #0x06	; 6
	.db #0xc0	; 192
	.db #0x00	; 0
	.db #0xb1	; 177
	.db #0x02	; 2
	.db #0x67	; 103	'g'
	.db #0xb1	; 177
	.db #0x06	; 6
	.db #0xc0	; 192
	.db #0xd4	; 212
	.db #0xb1	; 177
	.db #0x08	; 8
	.db #0x6f	; 111	'o'
	.db #0x6a	; 106	'j'
	.db #0x63	; 99	'c'
	.db #0x00	; 0
	.db #0xd4	; 212
	.db #0xb1	; 177
	.db #0x08	; 8
	.db #0x67	; 103	'g'
	.db #0xd1	; 209
	.db #0xb1	; 177
	.db #0x02	; 2
	.db #0x74	; 116	't'
	.db #0xb1	; 177
	.db #0x06	; 6
	.db #0xc0	; 192
	.db #0xb1	; 177
	.db #0x02	; 2
	.db #0x78	; 120	'x'
	.db #0xc0	; 192
	.db #0x76	; 118	'v'
	.db #0xb1	; 177
	.db #0x0a	; 10
	.db #0xc0	; 192
	.db #0x00	; 0
	.db #0xb1	; 177
	.db #0x08	; 8
	.db #0xd0	; 208
	.db #0xd4	; 212
	.db #0xcd	; 205
	.db #0xb1	; 177
	.db #0x04	; 4
	.db #0x5c	; 92
	.db #0x34	; 52	'4'
	.db #0xb1	; 177
	.db #0x01	; 1
	.db #0x60	; 96
	.db #0x20	; 32
	.db #0xb1	; 177
	.db #0x03	; 3
	.db #0xd0	; 208
	.db #0xb1	; 177
	.db #0x04	; 4
	.db #0x5e	; 94
	.db #0x34	; 52	'4'
	.db #0xb1	; 177
	.db #0x01	; 1
	.db #0x60	; 96
	.db #0x20	; 32
	.db #0xb1	; 177
	.db #0x03	; 3
	.db #0xd0	; 208
	.db #0xb1	; 177
	.db #0x04	; 4
	.db #0x57	; 87	'W'
	.db #0x34	; 52	'4'
	.db #0xb1	; 177
	.db #0x01	; 1
	.db #0x60	; 96
	.db #0x20	; 32
	.db #0xb1	; 177
	.db #0x03	; 3
	.db #0xd0	; 208
	.db #0x00	; 0
	.db #0xb1	; 177
	.db #0x08	; 8
	.db #0xd0	; 208
	.db #0xd3	; 211
	.db #0xcf	; 207
	.db #0xb1	; 177
	.db #0x01	; 1
	.db #0x6c	; 108	'l'
	.db #0xb1	; 177
	.db #0x03	; 3
	.db #0xc0	; 192
	.db #0xd5	; 213
	.db #0xb1	; 177
	.db #0x01	; 1
	.db #0x6c	; 108	'l'
	.db #0xc0	; 192
	.db #0x6c	; 108	'l'
	.db #0xc0	; 192
	.db #0xd3	; 211
	.db #0x6c	; 108	'l'
	.db #0xb1	; 177
	.db #0x03	; 3
	.db #0xc0	; 192
	.db #0xd5	; 213
	.db #0xb1	; 177
	.db #0x01	; 1
	.db #0x6c	; 108	'l'
	.db #0xb1	; 177
	.db #0x03	; 3
	.db #0xc0	; 192
	.db #0xd3	; 211
	.db #0xb1	; 177
	.db #0x01	; 1
	.db #0x6c	; 108	'l'
	.db #0xb1	; 177
	.db #0x03	; 3
	.db #0xc0	; 192
	.db #0xd5	; 213
	.db #0xb1	; 177
	.db #0x01	; 1
	.db #0x6c	; 108	'l'
	.db #0xc0	; 192
	.db #0x6c	; 108	'l'
	.db #0xc0	; 192
	.db #0x00	; 0
	.db #0xd1	; 209
	.db #0xb1	; 177
	.db #0x02	; 2
	.db #0x78	; 120	'x'
	.db #0xc0	; 192
	.db #0x74	; 116	't'
	.db #0xb1	; 177
	.db #0x0a	; 10
	.db #0xc0	; 192
	.db #0xb1	; 177
	.db #0x04	; 4
	.db #0x6f	; 111	'o'
	.db #0xc0	; 192
	.db #0x71	; 113	'q'
	.db #0xc0	; 192
	.db #0x00	; 0
	.db #0xb1	; 177
	.db #0x04	; 4
	.db #0x5e	; 94
	.db #0x34	; 52	'4'
	.db #0xb1	; 177
	.db #0x01	; 1
	.db #0x60	; 96
	.db #0x20	; 32
	.db #0xb1	; 177
	.db #0x03	; 3
	.db #0xd0	; 208
	.db #0xb1	; 177
	.db #0x04	; 4
	.db #0x5c	; 92
	.db #0x34	; 52	'4'
	.db #0xb1	; 177
	.db #0x01	; 1
	.db #0x60	; 96
	.db #0x20	; 32
	.db #0xb1	; 177
	.db #0x03	; 3
	.db #0xd0	; 208
	.db #0xb1	; 177
	.db #0x04	; 4
	.db #0x57	; 87	'W'
	.db #0x34	; 52	'4'
	.db #0xb1	; 177
	.db #0x01	; 1
	.db #0x60	; 96
	.db #0x20	; 32
	.db #0xb1	; 177
	.db #0x03	; 3
	.db #0xd0	; 208
	.db #0xb1	; 177
	.db #0x04	; 4
	.db #0x5c	; 92
	.db #0x34	; 52	'4'
	.db #0xb1	; 177
	.db #0x01	; 1
	.db #0x60	; 96
	.db #0x20	; 32
	.db #0xb1	; 177
	.db #0x03	; 3
	.db #0xd0	; 208
	.db #0x00	; 0
	.db #0xd3	; 211
	.db #0xcf	; 207
	.db #0xb1	; 177
	.db #0x01	; 1
	.db #0x6c	; 108	'l'
	.db #0xb1	; 177
	.db #0x03	; 3
	.db #0xc0	; 192
	.db #0xd5	; 213
	.db #0xce	; 206
	.db #0xb1	; 177
	.db #0x01	; 1
	.db #0x6c	; 108	'l'
	.db #0xb1	; 177
	.db #0x03	; 3
	.db #0xc0	; 192
	.db #0xd3	; 211
	.db #0xcf	; 207
	.db #0xb1	; 177
	.db #0x01	; 1
	.db #0x6c	; 108	'l'
	.db #0xb1	; 177
	.db #0x03	; 3
	.db #0xc0	; 192
	.db #0xd5	; 213
	.db #0xce	; 206
	.db #0xb1	; 177
	.db #0x01	; 1
	.db #0x6c	; 108	'l'
	.db #0xc0	; 192
	.db #0x6c	; 108	'l'
	.db #0xc0	; 192
	.db #0xd3	; 211
	.db #0x4e	; 78	'N'
	.db #0x6c	; 108	'l'
	.db #0xb1	; 177
	.db #0x03	; 3
	.db #0xc0	; 192
	.db #0xd5	; 213
	.db #0xcf	; 207
	.db #0xb1	; 177
	.db #0x01	; 1
	.db #0x6c	; 108	'l'
	.db #0xb1	; 177
	.db #0x03	; 3
	.db #0xc0	; 192
	.db #0xd3	; 211
	.db #0xb1	; 177
	.db #0x01	; 1
	.db #0x6c	; 108	'l'
	.db #0xb1	; 177
	.db #0x03	; 3
	.db #0xc0	; 192
	.db #0xd5	; 213
	.db #0xce	; 206
	.db #0xb1	; 177
	.db #0x01	; 1
	.db #0x6c	; 108	'l'
	.db #0xb1	; 177
	.db #0x03	; 3
	.db #0xc0	; 192
	.db #0x00	; 0
	.db #0xb1	; 177
	.db #0x02	; 2
	.db #0x74	; 116	't'
	.db #0xb1	; 177
	.db #0x06	; 6
	.db #0xc0	; 192
	.db #0xb1	; 177
	.db #0x02	; 2
	.db #0x76	; 118	'v'
	.db #0xb1	; 177
	.db #0x06	; 6
	.db #0xc0	; 192
	.db #0xb1	; 177
	.db #0x02	; 2
	.db #0x79	; 121	'y'
	.db #0xc0	; 192
	.db #0x78	; 120	'x'
	.db #0xb1	; 177
	.db #0x0a	; 10
	.db #0xc0	; 192
	.db #0x00	; 0
	.db #0xb1	; 177
	.db #0x04	; 4
	.db #0x57	; 87	'W'
	.db #0x34	; 52	'4'
	.db #0xb1	; 177
	.db #0x01	; 1
	.db #0x60	; 96
	.db #0x20	; 32
	.db #0xd0	; 208
	.db #0x34	; 52	'4'
	.db #0xd0	; 208
	.db #0x20	; 32
	.db #0xd0	; 208
	.db #0xb1	; 177
	.db #0x04	; 4
	.db #0x5e	; 94
	.db #0x34	; 52	'4'
	.db #0xb1	; 177
	.db #0x01	; 1
	.db #0x61	; 97	'a'
	.db #0x20	; 32
	.db #0xb1	; 177
	.db #0x03	; 3
	.db #0xd0	; 208
	.db #0xb1	; 177
	.db #0x04	; 4
	.db #0x60	; 96
	.db #0x34	; 52	'4'
	.db #0xb1	; 177
	.db #0x01	; 1
	.db #0x61	; 97	'a'
	.db #0x20	; 32
	.db #0xd0	; 208
	.db #0x34	; 52	'4'
	.db #0xd0	; 208
	.db #0x20	; 32
	.db #0xd0	; 208
	.db #0xb1	; 177
	.db #0x04	; 4
	.db #0x5c	; 92
	.db #0x34	; 52	'4'
	.db #0xb1	; 177
	.db #0x01	; 1
	.db #0x61	; 97	'a'
	.db #0x20	; 32
	.db #0xb1	; 177
	.db #0x03	; 3
	.db #0xd0	; 208
	.db #0x00	; 0
	.db #0xd3	; 211
	.db #0xcf	; 207
	.db #0xb1	; 177
	.db #0x01	; 1
	.db #0x6c	; 108	'l'
	.db #0xb1	; 177
	.db #0x03	; 3
	.db #0xc0	; 192
	.db #0xd5	; 213
	.db #0xce	; 206
	.db #0xb1	; 177
	.db #0x01	; 1
	.db #0x6c	; 108	'l'
	.db #0xb1	; 177
	.db #0x03	; 3
	.db #0xc0	; 192
	.db #0xd3	; 211
	.db #0xcf	; 207
	.db #0xb1	; 177
	.db #0x01	; 1
	.db #0x6c	; 108	'l'
	.db #0xb1	; 177
	.db #0x03	; 3
	.db #0xc0	; 192
	.db #0xd5	; 213
	.db #0xce	; 206
	.db #0xb1	; 177
	.db #0x01	; 1
	.db #0x6c	; 108	'l'
	.db #0xc0	; 192
	.db #0x6c	; 108	'l'
	.db #0xc0	; 192
	.db #0xd3	; 211
	.db #0xcf	; 207
	.db #0x6c	; 108	'l'
	.db #0xb1	; 177
	.db #0x03	; 3
	.db #0xc0	; 192
	.db #0xd5	; 213
	.db #0xce	; 206
	.db #0xb1	; 177
	.db #0x01	; 1
	.db #0x6c	; 108	'l'
	.db #0xb1	; 177
	.db #0x03	; 3
	.db #0xc0	; 192
	.db #0xd3	; 211
	.db #0xcf	; 207
	.db #0xb1	; 177
	.db #0x01	; 1
	.db #0x6c	; 108	'l'
	.db #0xb1	; 177
	.db #0x03	; 3
	.db #0xc0	; 192
	.db #0xd5	; 213
	.db #0xce	; 206
	.db #0xb1	; 177
	.db #0x01	; 1
	.db #0x6c	; 108	'l'
	.db #0xc0	; 192
	.db #0x6c	; 108	'l'
	.db #0xc0	; 192
	.db #0x00	; 0
	.db #0xb1	; 177
	.db #0x02	; 2
	.db #0x79	; 121	'y'
	.db #0xc0	; 192
	.db #0x76	; 118	'v'
	.db #0xb1	; 177
	.db #0x0a	; 10
	.db #0xc0	; 192
	.db #0xb1	; 177
	.db #0x02	; 2
	.db #0x76	; 118	'v'
	.db #0xb1	; 177
	.db #0x06	; 6
	.db #0xc0	; 192
	.db #0xb1	; 177
	.db #0x02	; 2
	.db #0x78	; 120	'x'
	.db #0xb1	; 177
	.db #0x06	; 6
	.db #0xc0	; 192
	.db #0x00	; 0
	.db #0xb1	; 177
	.db #0x04	; 4
	.db #0x60	; 96
	.db #0x34	; 52	'4'
	.db #0xb1	; 177
	.db #0x01	; 1
	.db #0x61	; 97	'a'
	.db #0x20	; 32
	.db #0xb1	; 177
	.db #0x03	; 3
	.db #0xd0	; 208
	.db #0xb1	; 177
	.db #0x04	; 4
	.db #0x5b	; 91
	.db #0x34	; 52	'4'
	.db #0xb1	; 177
	.db #0x01	; 1
	.db #0x61	; 97	'a'
	.db #0x20	; 32
	.db #0xb1	; 177
	.db #0x03	; 3
	.db #0xd0	; 208
	.db #0xb1	; 177
	.db #0x04	; 4
	.db #0x60	; 96
	.db #0x34	; 52	'4'
	.db #0xb1	; 177
	.db #0x01	; 1
	.db #0x61	; 97	'a'
	.db #0x20	; 32
	.db #0xb1	; 177
	.db #0x03	; 3
	.db #0xd0	; 208
	.db #0xb1	; 177
	.db #0x04	; 4
	.db #0x5e	; 94
	.db #0x34	; 52	'4'
	.db #0xb1	; 177
	.db #0x01	; 1
	.db #0x61	; 97	'a'
	.db #0x20	; 32
	.db #0xb1	; 177
	.db #0x03	; 3
	.db #0xd0	; 208
	.db #0x00	; 0
	.db #0xd3	; 211
	.db #0xcf	; 207
	.db #0xb1	; 177
	.db #0x01	; 1
	.db #0x6c	; 108	'l'
	.db #0xb1	; 177
	.db #0x03	; 3
	.db #0xc0	; 192
	.db #0xd5	; 213
	.db #0xce	; 206
	.db #0xb1	; 177
	.db #0x01	; 1
	.db #0x6c	; 108	'l'
	.db #0xb1	; 177
	.db #0x03	; 3
	.db #0xc0	; 192
	.db #0xd3	; 211
	.db #0xcf	; 207
	.db #0xb1	; 177
	.db #0x01	; 1
	.db #0x6c	; 108	'l'
	.db #0xb1	; 177
	.db #0x03	; 3
	.db #0xc0	; 192
	.db #0xd5	; 213
	.db #0xce	; 206
	.db #0xb1	; 177
	.db #0x01	; 1
	.db #0x6c	; 108	'l'
	.db #0xc0	; 192
	.db #0x6c	; 108	'l'
	.db #0xc0	; 192
	.db #0xd3	; 211
	.db #0xcf	; 207
	.db #0x6c	; 108	'l'
	.db #0xb1	; 177
	.db #0x03	; 3
	.db #0xc0	; 192
	.db #0xd5	; 213
	.db #0xce	; 206
	.db #0xb1	; 177
	.db #0x01	; 1
	.db #0x6c	; 108	'l'
	.db #0xb1	; 177
	.db #0x03	; 3
	.db #0xc0	; 192
	.db #0xd3	; 211
	.db #0xcf	; 207
	.db #0xb1	; 177
	.db #0x01	; 1
	.db #0x6c	; 108	'l'
	.db #0xb1	; 177
	.db #0x03	; 3
	.db #0xc0	; 192
	.db #0xd5	; 213
	.db #0xb1	; 177
	.db #0x01	; 1
	.db #0x6c	; 108	'l'
	.db #0xb1	; 177
	.db #0x03	; 3
	.db #0xc0	; 192
	.db #0x00	; 0
	.db #0xb1	; 177
	.db #0x02	; 2
	.db #0x79	; 121	'y'
	.db #0xb1	; 177
	.db #0x06	; 6
	.db #0xc0	; 192
	.db #0xb1	; 177
	.db #0x02	; 2
	.db #0x7b	; 123
	.db #0xb1	; 177
	.db #0x06	; 6
	.db #0xc0	; 192
	.db #0xb1	; 177
	.db #0x02	; 2
	.db #0x7d	; 125
	.db #0xc0	; 192
	.db #0x7b	; 123
	.db #0xb1	; 177
	.db #0x0a	; 10
	.db #0xc0	; 192
	.db #0x00	; 0
	.db #0xb1	; 177
	.db #0x04	; 4
	.db #0x60	; 96
	.db #0x34	; 52	'4'
	.db #0xb1	; 177
	.db #0x01	; 1
	.db #0x61	; 97	'a'
	.db #0x20	; 32
	.db #0xb1	; 177
	.db #0x03	; 3
	.db #0xd0	; 208
	.db #0xb1	; 177
	.db #0x04	; 4
	.db #0x57	; 87	'W'
	.db #0x34	; 52	'4'
	.db #0xb1	; 177
	.db #0x01	; 1
	.db #0x60	; 96
	.db #0x20	; 32
	.db #0xb1	; 177
	.db #0x03	; 3
	.db #0xd0	; 208
	.db #0xb1	; 177
	.db #0x04	; 4
	.db #0x5c	; 92
	.db #0x34	; 52	'4'
	.db #0xb1	; 177
	.db #0x01	; 1
	.db #0x60	; 96
	.db #0x20	; 32
	.db #0xb1	; 177
	.db #0x03	; 3
	.db #0xd0	; 208
	.db #0xb1	; 177
	.db #0x04	; 4
	.db #0x57	; 87	'W'
	.db #0x34	; 52	'4'
	.db #0xb1	; 177
	.db #0x01	; 1
	.db #0x60	; 96
	.db #0x20	; 32
	.db #0xb1	; 177
	.db #0x03	; 3
	.db #0xd0	; 208
	.db #0x00	; 0
	.db #0xb1	; 177
	.db #0x02	; 2
	.db #0x7a	; 122	'z'
	.db #0xb1	; 177
	.db #0x06	; 6
	.db #0xc0	; 192
	.db #0xb1	; 177
	.db #0x02	; 2
	.db #0x79	; 121	'y'
	.db #0xb1	; 177
	.db #0x06	; 6
	.db #0xc0	; 192
	.db #0xb1	; 177
	.db #0x02	; 2
	.db #0x7b	; 123
	.db #0xc0	; 192
	.db #0x79	; 121	'y'
	.db #0xb1	; 177
	.db #0x0a	; 10
	.db #0xc0	; 192
	.db #0x00	; 0
	.db #0xb1	; 177
	.db #0x04	; 4
	.db #0x59	; 89	'Y'
	.db #0x34	; 52	'4'
	.db #0xb1	; 177
	.db #0x01	; 1
	.db #0x5e	; 94
	.db #0x20	; 32
	.db #0xb1	; 177
	.db #0x03	; 3
	.db #0xd0	; 208
	.db #0xb1	; 177
	.db #0x04	; 4
	.db #0x57	; 87	'W'
	.db #0x34	; 52	'4'
	.db #0xb1	; 177
	.db #0x01	; 1
	.db #0x5e	; 94
	.db #0x20	; 32
	.db #0xb1	; 177
	.db #0x03	; 3
	.db #0xd0	; 208
	.db #0xb1	; 177
	.db #0x04	; 4
	.db #0x5b	; 91
	.db #0x34	; 52	'4'
	.db #0xb1	; 177
	.db #0x01	; 1
	.db #0x5e	; 94
	.db #0x20	; 32
	.db #0xb1	; 177
	.db #0x03	; 3
	.db #0xd0	; 208
	.db #0xb1	; 177
	.db #0x04	; 4
	.db #0x57	; 87	'W'
	.db #0x34	; 52	'4'
	.db #0xb1	; 177
	.db #0x01	; 1
	.db #0x5e	; 94
	.db #0x20	; 32
	.db #0xb1	; 177
	.db #0x03	; 3
	.db #0xd0	; 208
	.db #0x00	; 0
	.db #0xd3	; 211
	.db #0xcf	; 207
	.db #0xb1	; 177
	.db #0x01	; 1
	.db #0x6c	; 108	'l'
	.db #0xb1	; 177
	.db #0x03	; 3
	.db #0xc0	; 192
	.db #0xd5	; 213
	.db #0xce	; 206
	.db #0xb1	; 177
	.db #0x01	; 1
	.db #0x6c	; 108	'l'
	.db #0xb1	; 177
	.db #0x03	; 3
	.db #0xc0	; 192
	.db #0xd3	; 211
	.db #0xcf	; 207
	.db #0xb1	; 177
	.db #0x01	; 1
	.db #0x6c	; 108	'l'
	.db #0xb1	; 177
	.db #0x03	; 3
	.db #0xc0	; 192
	.db #0xd5	; 213
	.db #0xce	; 206
	.db #0xb1	; 177
	.db #0x01	; 1
	.db #0x6c	; 108	'l'
	.db #0xc0	; 192
	.db #0x6c	; 108	'l'
	.db #0xc0	; 192
	.db #0xd3	; 211
	.db #0xcf	; 207
	.db #0x6c	; 108	'l'
	.db #0xb1	; 177
	.db #0x03	; 3
	.db #0xc0	; 192
	.db #0xd5	; 213
	.db #0xce	; 206
	.db #0xb1	; 177
	.db #0x01	; 1
	.db #0x6c	; 108	'l'
	.db #0xb1	; 177
	.db #0x03	; 3
	.db #0xc0	; 192
	.db #0xd3	; 211
	.db #0xcf	; 207
	.db #0xb1	; 177
	.db #0x01	; 1
	.db #0x6c	; 108	'l'
	.db #0xb1	; 177
	.db #0x03	; 3
	.db #0xc0	; 192
	.db #0xd5	; 213
	.db #0xce	; 206
	.db #0xb1	; 177
	.db #0x01	; 1
	.db #0x6c	; 108	'l'
	.db #0xb1	; 177
	.db #0x03	; 3
	.db #0xc0	; 192
	.db #0x00	; 0
	.db #0xb1	; 177
	.db #0x02	; 2
	.db #0x77	; 119	'w'
	.db #0xb1	; 177
	.db #0x06	; 6
	.db #0xc0	; 192
	.db #0xb1	; 177
	.db #0x02	; 2
	.db #0x78	; 120	'x'
	.db #0xb1	; 177
	.db #0x06	; 6
	.db #0xc0	; 192
	.db #0xb1	; 177
	.db #0x02	; 2
	.db #0x79	; 121	'y'
	.db #0xc0	; 192
	.db #0x78	; 120	'x'
	.db #0xb1	; 177
	.db #0x0a	; 10
	.db #0xc0	; 192
	.db #0x00	; 0
	.db #0xb1	; 177
	.db #0x04	; 4
	.db #0x57	; 87	'W'
	.db #0x34	; 52	'4'
	.db #0xb1	; 177
	.db #0x01	; 1
	.db #0x5a	; 90	'Z'
	.db #0x20	; 32
	.db #0xb1	; 177
	.db #0x03	; 3
	.db #0xd0	; 208
	.db #0xb1	; 177
	.db #0x04	; 4
	.db #0x54	; 84	'T'
	.db #0x34	; 52	'4'
	.db #0xb1	; 177
	.db #0x01	; 1
	.db #0x5c	; 92
	.db #0x20	; 32
	.db #0xb1	; 177
	.db #0x03	; 3
	.db #0xd0	; 208
	.db #0xb1	; 177
	.db #0x04	; 4
	.db #0x57	; 87	'W'
	.db #0x34	; 52	'4'
	.db #0xb1	; 177
	.db #0x01	; 1
	.db #0x5c	; 92
	.db #0x20	; 32
	.db #0xb1	; 177
	.db #0x03	; 3
	.db #0xd0	; 208
	.db #0xb1	; 177
	.db #0x04	; 4
	.db #0x54	; 84	'T'
	.db #0x34	; 52	'4'
	.db #0xb1	; 177
	.db #0x01	; 1
	.db #0x5c	; 92
	.db #0x20	; 32
	.db #0xb1	; 177
	.db #0x03	; 3
	.db #0xd0	; 208
	.db #0x00	; 0
	.db #0xb1	; 177
	.db #0x02	; 2
	.db #0x75	; 117	'u'
	.db #0xb1	; 177
	.db #0x06	; 6
	.db #0xc0	; 192
	.db #0xb1	; 177
	.db #0x02	; 2
	.db #0x76	; 118	'v'
	.db #0xb1	; 177
	.db #0x06	; 6
	.db #0xc0	; 192
	.db #0xb1	; 177
	.db #0x02	; 2
	.db #0x73	; 115	's'
	.db #0xb1	; 177
	.db #0x06	; 6
	.db #0xc0	; 192
	.db #0xb1	; 177
	.db #0x02	; 2
	.db #0x71	; 113	'q'
	.db #0xb1	; 177
	.db #0x06	; 6
	.db #0xc0	; 192
	.db #0x00	; 0
	.db #0xb1	; 177
	.db #0x04	; 4
	.db #0x55	; 85	'U'
	.db #0x34	; 52	'4'
	.db #0xb1	; 177
	.db #0x01	; 1
	.db #0x59	; 89	'Y'
	.db #0x20	; 32
	.db #0xb1	; 177
	.db #0x03	; 3
	.db #0xd0	; 208
	.db #0xb1	; 177
	.db #0x04	; 4
	.db #0x57	; 87	'W'
	.db #0x34	; 52	'4'
	.db #0xb1	; 177
	.db #0x01	; 1
	.db #0x5e	; 94
	.db #0x20	; 32
	.db #0xb1	; 177
	.db #0x03	; 3
	.db #0xd0	; 208
	.db #0xb1	; 177
	.db #0x04	; 4
	.db #0x5b	; 91
	.db #0x34	; 52	'4'
	.db #0xb1	; 177
	.db #0x01	; 1
	.db #0x5e	; 94
	.db #0x20	; 32
	.db #0xb1	; 177
	.db #0x03	; 3
	.db #0xd0	; 208
	.db #0xb1	; 177
	.db #0x04	; 4
	.db #0x57	; 87	'W'
	.db #0x34	; 52	'4'
	.db #0xb1	; 177
	.db #0x01	; 1
	.db #0x5e	; 94
	.db #0x20	; 32
	.db #0xb1	; 177
	.db #0x03	; 3
	.db #0xd0	; 208
	.db #0x00	; 0
	.db #0xd1	; 209
	.db #0xb1	; 177
	.db #0x01	; 1
	.db #0x6f	; 111	'o'
	.db #0xb1	; 177
	.db #0x07	; 7
	.db #0xc0	; 192
	.db #0x00	; 0
	.db #0xb1	; 177
	.db #0x04	; 4
	.db #0x5b	; 91
	.db #0x34	; 52	'4'
	.db #0xb1	; 177
	.db #0x01	; 1
	.db #0x5e	; 94
	.db #0x20	; 32
	.db #0xb1	; 177
	.db #0x03	; 3
	.db #0xd0	; 208
	.db #0x00	; 0
	.db #0xd3	; 211
	.db #0xcf	; 207
	.db #0xb1	; 177
	.db #0x01	; 1
	.db #0x6c	; 108	'l'
	.db #0xb1	; 177
	.db #0x03	; 3
	.db #0xc0	; 192
	.db #0xd5	; 213
	.db #0xce	; 206
	.db #0xb1	; 177
	.db #0x01	; 1
	.db #0x6c	; 108	'l'
	.db #0xb1	; 177
	.db #0x03	; 3
	.db #0xc0	; 192
	.db #0x00	; 0
	.db #0xd1	; 209
	.db #0xb1	; 177
	.db #0x02	; 2
	.db #0x74	; 116	't'
	.db #0xb1	; 177
	.db #0x06	; 6
	.db #0xc0	; 192
	.db #0xb1	; 177
	.db #0x02	; 2
	.db #0x78	; 120	'x'
	.db #0xc0	; 192
	.db #0x76	; 118	'v'
	.db #0xb1	; 177
	.db #0x0a	; 10
	.db #0xc0	; 192
	.db #0x00	; 0
	.db #0xd4	; 212
	.db #0xcd	; 205
	.db #0xb1	; 177
	.db #0x04	; 4
	.db #0x5c	; 92
	.db #0x34	; 52	'4'
	.db #0xb1	; 177
	.db #0x01	; 1
	.db #0x60	; 96
	.db #0x20	; 32
	.db #0xb1	; 177
	.db #0x03	; 3
	.db #0xd0	; 208
	.db #0xb1	; 177
	.db #0x04	; 4
	.db #0x5e	; 94
	.db #0x34	; 52	'4'
	.db #0xb1	; 177
	.db #0x01	; 1
	.db #0x60	; 96
	.db #0x20	; 32
	.db #0xb1	; 177
	.db #0x03	; 3
	.db #0xd0	; 208
	.db #0xb1	; 177
	.db #0x04	; 4
	.db #0x57	; 87	'W'
	.db #0x34	; 52	'4'
	.db #0xb1	; 177
	.db #0x01	; 1
	.db #0x60	; 96
	.db #0x20	; 32
	.db #0xb1	; 177
	.db #0x03	; 3
	.db #0xd0	; 208
	.db #0x00	; 0
	.db #0xd3	; 211
	.db #0xcf	; 207
	.db #0xb1	; 177
	.db #0x01	; 1
	.db #0x6c	; 108	'l'
	.db #0xb1	; 177
	.db #0x03	; 3
	.db #0xc0	; 192
	.db #0xd5	; 213
	.db #0xce	; 206
	.db #0xb1	; 177
	.db #0x01	; 1
	.db #0x6c	; 108	'l'
	.db #0xc0	; 192
	.db #0x6c	; 108	'l'
	.db #0xc0	; 192
	.db #0xd3	; 211
	.db #0xcf	; 207
	.db #0x6c	; 108	'l'
	.db #0xb1	; 177
	.db #0x03	; 3
	.db #0xc0	; 192
	.db #0xd5	; 213
	.db #0xce	; 206
	.db #0xb1	; 177
	.db #0x01	; 1
	.db #0x6c	; 108	'l'
	.db #0xb1	; 177
	.db #0x03	; 3
	.db #0xc0	; 192
	.db #0xd3	; 211
	.db #0xcf	; 207
	.db #0xb1	; 177
	.db #0x01	; 1
	.db #0x6c	; 108	'l'
	.db #0xb1	; 177
	.db #0x03	; 3
	.db #0xc0	; 192
	.db #0xd5	; 213
	.db #0xce	; 206
	.db #0xb1	; 177
	.db #0x01	; 1
	.db #0x6c	; 108	'l'
	.db #0xc0	; 192
	.db #0x6c	; 108	'l'
	.db #0xc0	; 192
	.db #0x00	; 0
	.db #0xd2	; 210
	.db #0x01	; 1
	.db #0xb1	; 177
	.db #0x1a	; 26
	.db #0x6f	; 111	'o'
	.db #0x02	; 2
	.db #0x21	; 33
	.db #0x00	; 0
	.db #0xb1	; 177
	.db #0x0d	; 13
	.db #0xc0	; 192
	.db #0xd1	; 209
	.db #0xb1	; 177
	.db #0x01	; 1
	.db #0x7b	; 123
	.db #0xc0	; 192
	.db #0x7b	; 123
	.db #0xc0	; 192
	.db #0x7b	; 123
	.db #0xc0	; 192
	.db #0x7b	; 123
	.db #0xb1	; 177
	.db #0x11	; 17
	.db #0xc0	; 192
	.db #0x00	; 0
	.db #0xb1	; 177
	.db #0x04	; 4
	.db #0x5b	; 91
	.db #0x34	; 52	'4'
	.db #0xb1	; 177
	.db #0x01	; 1
	.db #0x5e	; 94
	.db #0x20	; 32
	.db #0xd0	; 208
	.db #0xb1	; 177
	.db #0x39	; 57	'9'
	.db #0xc0	; 192
	.db #0x00	; 0
	.db #0xd3	; 211
	.db #0xcf	; 207
	.db #0xb1	; 177
	.db #0x01	; 1
	.db #0x6c	; 108	'l'
	.db #0xb1	; 177
	.db #0x03	; 3
	.db #0xc0	; 192
	.db #0xd5	; 213
	.db #0xce	; 206
	.db #0xb1	; 177
	.db #0x01	; 1
	.db #0x6c	; 108	'l'
	.db #0xb1	; 177
	.db #0x2b	; 43
	.db #0xc0	; 192
	.db #0xd3	; 211
	.db #0xcf	; 207
	.db #0xb1	; 177
	.db #0x01	; 1
	.db #0x6c	; 108	'l'
	.db #0xb1	; 177
	.db #0x02	; 2
	.db #0xc0	; 192
	.db #0xb1	; 177
	.db #0x01	; 1
	.db #0x6c	; 108	'l'
	.db #0xb1	; 177
	.db #0x02	; 2
	.db #0xc0	; 192
	.db #0xb1	; 177
	.db #0x01	; 1
	.db #0x6c	; 108	'l'
	.db #0xb1	; 177
	.db #0x08	; 8
	.db #0xc0	; 192
	.db #0x00	; 0
	.db #0x02	; 2
	.db #0x03	; 3
	.db #0x01	; 1
	.db #0x8f	; 143
	.db #0x00	; 0
	.db #0x00	; 0
	.db #0x01	; 1
	.db #0x8f	; 143
	.db #0x00	; 0
	.db #0x00	; 0
	.db #0x01	; 1
	.db #0x80	; 128
	.db #0x00	; 0
	.db #0x00	; 0
	.db #0x00	; 0
	.db #0x01	; 1
	.db #0x01	; 1
	.db #0x8f	; 143
	.db #0x00	; 0
	.db #0x00	; 0
	.db #0x00	; 0
	.db #0x01	; 1
	.db #0x81	; 129
	.db #0xcf	; 207
	.db #0x50	; 80	'P'
	.db #0x01	; 1
	.db #0x00	; 0
	.db #0x30	; 48	'0'
	.db #0x01	; 1
	.db #0x8f	; 143
	.db #0x00	; 0
	.db #0x00	; 0
	.db #0x01	; 1
	.db #0x8f	; 143
	.db #0x00	; 0
	.db #0x00	; 0
	.db #0x01	; 1
	.db #0x8f	; 143
	.db #0x00	; 0
	.db #0x00	; 0
	.db #0x01	; 1
	.db #0x8f	; 143
	.db #0x00	; 0
	.db #0x00	; 0
	.db #0x01	; 1
	.db #0x8e	; 142
	.db #0x00	; 0
	.db #0x00	; 0
	.db #0x01	; 1
	.db #0x8e	; 142
	.db #0x00	; 0
	.db #0x00	; 0
	.db #0x01	; 1
	.db #0x8e	; 142
	.db #0x00	; 0
	.db #0x00	; 0
	.db #0x01	; 1
	.db #0x8e	; 142
	.db #0x00	; 0
	.db #0x00	; 0
	.db #0x01	; 1
	.db #0x8d	; 141
	.db #0x00	; 0
	.db #0x00	; 0
	.db #0x01	; 1
	.db #0x8d	; 141
	.db #0x00	; 0
	.db #0x00	; 0
	.db #0x01	; 1
	.db #0x8d	; 141
	.db #0x00	; 0
	.db #0x00	; 0
	.db #0x01	; 1
	.db #0x8d	; 141
	.db #0x00	; 0
	.db #0x00	; 0
	.db #0x01	; 1
	.db #0x8c	; 140
	.db #0x00	; 0
	.db #0x00	; 0
	.db #0x01	; 1
	.db #0x8c	; 140
	.db #0x00	; 0
	.db #0x00	; 0
	.db #0x01	; 1
	.db #0x8c	; 140
	.db #0x00	; 0
	.db #0x00	; 0
	.db #0x01	; 1
	.db #0x8c	; 140
	.db #0x00	; 0
	.db #0x00	; 0
	.db #0x01	; 1
	.db #0x8b	; 139
	.db #0x00	; 0
	.db #0x00	; 0
	.db #0x01	; 1
	.db #0x8b	; 139
	.db #0x00	; 0
	.db #0x00	; 0
	.db #0x01	; 1
	.db #0x8b	; 139
	.db #0x00	; 0
	.db #0x00	; 0
	.db #0x01	; 1
	.db #0x8b	; 139
	.db #0x00	; 0
	.db #0x00	; 0
	.db #0x01	; 1
	.db #0x8a	; 138
	.db #0x00	; 0
	.db #0x00	; 0
	.db #0x01	; 1
	.db #0x8a	; 138
	.db #0x00	; 0
	.db #0x00	; 0
	.db #0x01	; 1
	.db #0x8a	; 138
	.db #0x00	; 0
	.db #0x00	; 0
	.db #0x01	; 1
	.db #0x8a	; 138
	.db #0x00	; 0
	.db #0x00	; 0
	.db #0x01	; 1
	.db #0x89	; 137
	.db #0x00	; 0
	.db #0x00	; 0
	.db #0x01	; 1
	.db #0x89	; 137
	.db #0x00	; 0
	.db #0x00	; 0
	.db #0x01	; 1
	.db #0x89	; 137
	.db #0x00	; 0
	.db #0x00	; 0
	.db #0x01	; 1
	.db #0x89	; 137
	.db #0x00	; 0
	.db #0x00	; 0
	.db #0x01	; 1
	.db #0x88	; 136
	.db #0x00	; 0
	.db #0x00	; 0
	.db #0x01	; 1
	.db #0x88	; 136
	.db #0x00	; 0
	.db #0x00	; 0
	.db #0x01	; 1
	.db #0x88	; 136
	.db #0x00	; 0
	.db #0x00	; 0
	.db #0x01	; 1
	.db #0x88	; 136
	.db #0x00	; 0
	.db #0x00	; 0
	.db #0x01	; 1
	.db #0x87	; 135
	.db #0x00	; 0
	.db #0x00	; 0
	.db #0x01	; 1
	.db #0x87	; 135
	.db #0x00	; 0
	.db #0x00	; 0
	.db #0x01	; 1
	.db #0x87	; 135
	.db #0x00	; 0
	.db #0x00	; 0
	.db #0x01	; 1
	.db #0x87	; 135
	.db #0x00	; 0
	.db #0x00	; 0
	.db #0x01	; 1
	.db #0x86	; 134
	.db #0x00	; 0
	.db #0x00	; 0
	.db #0x01	; 1
	.db #0x86	; 134
	.db #0x00	; 0
	.db #0x00	; 0
	.db #0x01	; 1
	.db #0x86	; 134
	.db #0x00	; 0
	.db #0x00	; 0
	.db #0x01	; 1
	.db #0x86	; 134
	.db #0x00	; 0
	.db #0x00	; 0
	.db #0x01	; 1
	.db #0x85	; 133
	.db #0x00	; 0
	.db #0x00	; 0
	.db #0x01	; 1
	.db #0x85	; 133
	.db #0x00	; 0
	.db #0x00	; 0
	.db #0x01	; 1
	.db #0x85	; 133
	.db #0x00	; 0
	.db #0x00	; 0
	.db #0x01	; 1
	.db #0x85	; 133
	.db #0x00	; 0
	.db #0x00	; 0
	.db #0x01	; 1
	.db #0x84	; 132
	.db #0x00	; 0
	.db #0x00	; 0
	.db #0x01	; 1
	.db #0x84	; 132
	.db #0x00	; 0
	.db #0x00	; 0
	.db #0x01	; 1
	.db #0x84	; 132
	.db #0x00	; 0
	.db #0x00	; 0
	.db #0x01	; 1
	.db #0x84	; 132
	.db #0x00	; 0
	.db #0x00	; 0
	.db #0x01	; 1
	.db #0x02	; 2
	.db #0x01	; 1
	.db #0x1f	; 31
	.db #0x00	; 0
	.db #0x00	; 0
	.db #0x01	; 1
	.db #0x90	; 144
	.db #0x00	; 0
	.db #0x00	; 0
	.db #0x00	; 0
	.db #0x01	; 1
	.db #0x00	; 0
	.db #0x00	; 0
	.db #0x01	; 1
	.db #0x00	; 0
_text01:
	.ascii "Test PT3 player Lib"
	.db 0x00
_text02:
	.ascii "v1.0 (22/05/2019)"
	.db 0x00
_presskey:
	.ascii "Press a key to continue"
	.db 0x00
;src\TestPT3.c:67: void main(void)
;	---------------------------------
; Function main
; ---------------------------------
_main::
;src\TestPT3.c:69: COLOR(WHITE,DARK_BLUE,LIGHT_BLUE);
	ld	hl,#0x0504
	push	hl
	ld	a,#0x0f
	push	af
	inc	sp
	call	_COLOR
	pop	af
	inc	sp
;src\TestPT3.c:71: SCREEN1();
	call	_SCREEN1
;src\TestPT3.c:72: WIDTH(32);  
	ld	a,#0x20
	push	af
	inc	sp
	call	_WIDTH
	inc	sp
;src\TestPT3.c:74: LOCATE(0,0);
	ld	hl,#0x0000
	push	hl
	call	_LOCATE
;src\TestPT3.c:75: PRINT(text01);
	ld	hl, #_text01
	ex	(sp),hl
	call	_PRINT
;src\TestPT3.c:76: PRINT("\n");
	ld	hl, #___str_5
	ex	(sp),hl
	call	_PRINT
;src\TestPT3.c:77: PRINT(text02);  
	ld	hl, #_text02
	ex	(sp),hl
	call	_PRINT
;src\TestPT3.c:78: PRINT("\n\n");
	ld	hl, #___str_6
	ex	(sp),hl
	call	_PRINT
;src\TestPT3.c:80: PRINT("Song name:\n >");
	ld	hl, #___str_7
	ex	(sp),hl
	call	_PRINT
;src\TestPT3.c:81: PRINT(PT3_name);
	ld	hl, #_PT3_name
	ex	(sp),hl
	call	_PRINT
;src\TestPT3.c:82: PRINT("\nAuthor:\n >");
	ld	hl, #___str_8
	ex	(sp),hl
	call	_PRINT
;src\TestPT3.c:83: PRINT(PT3_author);
	ld	hl, #_PT3_author
	ex	(sp),hl
	call	_PRINT
;src\TestPT3.c:84: PRINT("\n");
	ld	hl, #___str_5
	ex	(sp),hl
	call	_PRINT
	pop	af
;src\TestPT3.c:86: INKEY();
	call	_INKEY
;src\TestPT3.c:88: PT3Init((unsigned int) MAKISONG + 100,0);  // (unsigned int) Song data address ; (char) Loop - 0=off ; 1=on 
	ld	bc,#_MAKISONG+0
	ld	hl,#0x0064
	add	hl,bc
	ld	c,l
	ld	b,h
	xor	a, a
	push	af
	inc	sp
	push	bc
	call	_PT3Init
;src\TestPT3.c:90: install_isr(my_isr0);
	inc	sp
	ld	hl,#_my_isr0
	ex	(sp),hl
	call	_install_isr
	pop	af
;src\TestPT3.c:92: while(1)
00102$:
;src\TestPT3.c:94: HALT;  
	halt	
;src\TestPT3.c:101: WAIT(30*5);  
	jr	00102$
___str_5:
	.db 0x0a
	.db 0x00
___str_6:
	.db 0x0a
	.db 0x0a
	.db 0x00
___str_7:
	.ascii "Song name:"
	.db 0x0a
	.ascii " >"
	.db 0x00
___str_8:
	.db 0x0a
	.ascii "Author:"
	.db 0x0a
	.ascii " >"
	.db 0x00
___str_9:
	.ascii "END"
	.db 0x00
;src\TestPT3.c:114: char PEEK(uint address)
;	---------------------------------
; Function PEEK
; ---------------------------------
_PEEK::
;src\TestPT3.c:128: __endasm;
	push	IX
	ld	IX,#0
	add	IX,SP
	ld	L,4(IX)
	ld	H,5(IX)
	ld	A,(HL)
	ld	L,A
	pop	IX
	ret
;src\TestPT3.c:133: void POKE(uint address, char value)
;	---------------------------------
; Function POKE
; ---------------------------------
_POKE::
;src\TestPT3.c:147: __endasm;
	push	IX
	ld	IX,#0
	add	IX,SP
	ld	L,4(IX)
	ld	H,5(IX)
	ld	A,6(IX)
	ld	(HL),A
	pop	IX
	ret
;src\TestPT3.c:152: char VPEEK(uint address)
;	---------------------------------
; Function VPEEK
; ---------------------------------
_VPEEK::
;src\TestPT3.c:167: __endasm;
	push	IX
	ld	IX,#0
	add	IX,SP
	ld	L,4(IX)
	ld	H,5(IX)
	call	0x004A
	ld	L,A
	pop	IX
	ret
;src\TestPT3.c:175: char INKEY(){
;	---------------------------------
; Function INKEY
; ---------------------------------
_INKEY::
;src\TestPT3.c:179: __endasm;
	call	0x009F
	ld	L,A
	ret
;src\TestPT3.c:186: void WAIT(uint cicles)
;	---------------------------------
; Function WAIT
; ---------------------------------
_WAIT::
;src\TestPT3.c:189: for(i=0;i<cicles;i++) HALT;
	ld	bc,#0x0000
00103$:
	ld	hl,#2
	add	hl,sp
	ld	a,c
	sub	a, (hl)
	ld	a,b
	inc	hl
	sbc	a, (hl)
	ret	NC
	halt	
	inc	bc
;src\TestPT3.c:190: return;
	jr	00103$
	.area _CODE
	.area _INITIALIZER
	.area _CABS (ABS)
