ASxxxx Linker V03.00 + NoICE + sdld,  page 1.
Hexadecimal  [32-Bits]

Area                                    Addr        Size        Decimal Bytes (Attributes)
--------------------------------        ----        ----        ------- ----- ------------
.  .ABS.                            00000000    00000000 =           0. bytes (ABS,CON)

      Value  Global                              Global Defined In Module
      -----  --------------------------------   ------------------------
     00000000  .__.ABS.                           
     00000000  l__BSS                          
     00000000  l__CABS                         
     00000000  l__DABS                         
     00000000  l__GSFINAL                      
     00000000  l__GSINIT                       
     00000000  l__HEADER                       
     00000000  l__HOME                         
     00000000  l__INITIALIZED                  
     00000000  l__INITIALIZER                  
     00000000  s__CABS                         
     00000000  s__DABS                         
     00000000  s__HEADER                       
     00000000  s__HEADER0                      
     00000004  l__DATA                         
     0000001A  l__HEADER0                      
     0000163A  l__CODE                         
     00004020  s__CODE                         
     0000C000  s__DATA                         
     0000C004  s__BSS                          
     0000C004  s__GSFINAL                      
     0000C004  s__GSINIT                       
     0000C004  s__HOME                         
     0000C004  s__INITIALIZED                  
     0000C004  s__INITIALIZER                  

ASxxxx Linker V03.00 + NoICE + sdld,  page 2.
Hexadecimal  [32-Bits]

Area                                    Addr        Size        Decimal Bytes (Attributes)
--------------------------------        ----        ----        ------- ----- ------------
_CODE                               00004020    0000163A =        5690. bytes (REL,CON)

      Value  Global                              Global Defined In Module
      -----  --------------------------------   ------------------------
     00004020  _my_isr0                           TestPT3
     00004036  _PT3_name                          TestPT3
     0000404E  _PT3_author                        TestPT3
     00004059  _MAKISONG                          TestPT3
     00004C02  _text01                            TestPT3
     00004C16  _text02                            TestPT3
     00004C28  _presskey                          TestPT3
     00004C40  _main                              TestPT3
     00004CE1  _PEEK                              TestPT3
     00004CF4  _POKE                              TestPT3
     00004D09  _VPEEK                             TestPT3
     00004D1E  _INKEY                             TestPT3
     00004D23  _WAIT                              TestPT3
     00004D34  _install_isr                       
     00004D5B  _uninstall_isr                     
     00004D6A  _SCREEN0                           textmode_ROM
     00004D74  _SCREEN1                           textmode_ROM
     00004D7E  _WIDTH                             textmode_ROM
     00004D8F  _COLOR                             textmode_ROM
     00004DB3  _CLS                               textmode_ROM
     00004DB8  _LOCATE                            textmode_ROM
     00004DD0  _PRINT                             textmode_ROM
     00004DFC  _PrintNumber                       textmode_ROM
     00004E5F  _PrintFNumber                      textmode_ROM
     00004EE4  _num2Dec16                         textmode_ROM
     00004F3D  _bchput                            textmode_ROM
     00004F5F  _PT3Stop                           
     00004F6B  _PT3Init                           
     00004F8E  _PT3Play                           
     00004F96  playerINIT                         
ASxxxx Linker V03.00 + NoICE + sdld,  page 3.
Hexadecimal  [32-Bits]

Area                                    Addr        Size        Decimal Bytes (Attributes)
--------------------------------        ----        ----        ------- ----- ------------
_DATA                               0000C000    00000004 =           4. bytes (REL,CON)

      Value  Global                              Global Defined In Module
      -----  --------------------------------   ------------------------
     0000C000  _OLD_ISR                           
     0000C003  _CSTATE                            textmode_ROM

ASxxxx Linker V03.00 + NoICE + sdld,  page 4.
Hexadecimal  [32-Bits]

Area                                    Addr        Size        Decimal Bytes (Attributes)
--------------------------------        ----        ----        ------- ----- ------------
_HEADER0                            00000000    0000001A =          26. bytes (ABS,CON)

      Value  Global                              Global Defined In Module
      -----  --------------------------------   ------------------------
ASxxxx Linker V03.00 + NoICE + sdld,  page 5.

Files Linked                              [ module(s) ]

build\TestPT3.rel                         [ TestPT3 ]
libs\crt0msx.16k.4000.rel                 [  ]
libs\interrupt_ROM.rel                    [  ]
libs\textmode_ROM.rel                     [ textmode_ROM ]
libs\PT3player.rel                        [  ]

ASxxxx Linker V03.00 + NoICE + sdld,  page 6.

User Base Address Definitions

_CODE = 0x4020
_DATA = 0xc000

